Archive member included to satisfy reference by file (symbol)

../blockset/rtw/lib/HANcoder_Olimexino_STM32_F3_RTL.a(XcpStack.obj)
                              XcpTargetSpecific.obj (XcpCommunicationHandling)
../blockset/rtw/lib/HANcoder_Olimexino_STM32_F3_RTL.a(app.obj)
                              HANcoder_Olimexino_F3_ACC.obj (AppCtrlTaskSetPeriod)
../blockset/rtw/lib/HANcoder_Olimexino_STM32_F3_RTL.a(anin.obj)
                              HANcoder_Olimexino_F3_ACC.obj (ADCconversionTaskSetPeriod)
../blockset/rtw/lib/HANcoder_Olimexino_STM32_F3_RTL.a(can.obj)
                              HANcoder_Olimexino_F3_ACC.obj (CanInit)
../blockset/rtw/lib/HANcoder_Olimexino_STM32_F3_RTL.a(canio.obj)
                              HANcoder_Olimexino_F3_ACC.obj (CanIoInit)
../blockset/rtw/lib/HANcoder_Olimexino_STM32_F3_RTL.a(digin.obj)
                              HANcoder_Olimexino_F3_ACC.obj (DiginConfigure)
../blockset/rtw/lib/HANcoder_Olimexino_STM32_F3_RTL.a(os.obj)
                              ../blockset/rtw/lib/HANcoder_Olimexino_STM32_F3_RTL.a(can.obj) (OsIrqEnter)
../blockset/rtw/lib/HANcoder_Olimexino_STM32_F3_RTL.a(queue.obj)
                              ../blockset/rtw/lib/HANcoder_Olimexino_STM32_F3_RTL.a(can.obj) (xQueueGenericCreate)
../blockset/rtw/lib/HANcoder_Olimexino_STM32_F3_RTL.a(tasks.obj)
                              ../blockset/rtw/lib/HANcoder_Olimexino_STM32_F3_RTL.a(app.obj) (xTaskGenericCreate)
../blockset/rtw/lib/HANcoder_Olimexino_STM32_F3_RTL.a(timers.obj)
                              ../blockset/rtw/lib/HANcoder_Olimexino_STM32_F3_RTL.a(tasks.obj) (xTimerCreateTimerTask)
../blockset/rtw/lib/HANcoder_Olimexino_STM32_F3_RTL.a(port.obj)
                              ../blockset/rtw/lib/HANcoder_Olimexino_STM32_F3_RTL.a(tasks.obj) (pxPortInitialiseStack)
../blockset/rtw/lib/HANcoder_Olimexino_STM32_F3_RTL.a(heap_4.obj)
                              ../blockset/rtw/lib/HANcoder_Olimexino_STM32_F3_RTL.a(canio.obj) (pvPortMalloc)
../blockset/rtw/lib/HANcoder_Olimexino_STM32_F3_RTL.a(misc.obj)
                              ../blockset/rtw/lib/HANcoder_Olimexino_STM32_F3_RTL.a(can.obj) (NVIC_Init)
../blockset/rtw/lib/HANcoder_Olimexino_STM32_F3_RTL.a(stm32f30x_adc.obj)
                              ../blockset/rtw/lib/HANcoder_Olimexino_STM32_F3_RTL.a(anin.obj) (ADC_DeInit)
../blockset/rtw/lib/HANcoder_Olimexino_STM32_F3_RTL.a(stm32f30x_can.obj)
                              ../blockset/rtw/lib/HANcoder_Olimexino_STM32_F3_RTL.a(can.obj) (CAN_DeInit)
../blockset/rtw/lib/HANcoder_Olimexino_STM32_F3_RTL.a(stm32f30x_dma.obj)
                              ../blockset/rtw/lib/HANcoder_Olimexino_STM32_F3_RTL.a(anin.obj) (DMA_DeInit)
../blockset/rtw/lib/HANcoder_Olimexino_STM32_F3_RTL.a(stm32f30x_gpio.obj)
                              ../blockset/rtw/lib/HANcoder_Olimexino_STM32_F3_RTL.a(anin.obj) (GPIO_Init)
../blockset/rtw/lib/HANcoder_Olimexino_STM32_F3_RTL.a(stm32f30x_rcc.obj)
                              ../blockset/rtw/lib/HANcoder_Olimexino_STM32_F3_RTL.a(anin.obj) (RCC_ADCCLKConfig)
../blockset/rtw/lib/HANcoder_Olimexino_STM32_F3_RTL.a(vectors.obj)
                              (_vectab)
../blockset/rtw/lib/HANcoder_Olimexino_STM32_F3_RTL.a(quadencoder.obj)
                              ../blockset/rtw/lib/HANcoder_Olimexino_STM32_F3_RTL.a(os.obj) (QuadEncUpdate)
../blockset/rtw/lib/HANcoder_Olimexino_STM32_F3_RTL.a(errorcodes.obj)
                              ../blockset/rtw/lib/HANcoder_Olimexino_STM32_F3_RTL.a(app.obj) (ErrCodesInit)
../blockset/rtw/lib/HANcoder_Olimexino_STM32_F3_RTL.a(eeprom.obj)
                              ../blockset/rtw/lib/HANcoder_Olimexino_STM32_F3_RTL.a(app.obj) (EepromInit)
../blockset/rtw/lib/HANcoder_Olimexino_STM32_F3_RTL.a(reset.obj)
                              ../blockset/rtw/lib/HANcoder_Olimexino_STM32_F3_RTL.a(os.obj) (ResetMicrocontroller)
../blockset/rtw/lib/HANcoder_Olimexino_STM32_F3_RTL.a(eeprom_sim.obj)
                              ../blockset/rtw/lib/HANcoder_Olimexino_STM32_F3_RTL.a(eeprom.obj) (EepromSimInit)
../blockset/rtw/lib/HANcoder_Olimexino_STM32_F3_RTL.a(pwmout.obj)
                              HANcoder_Olimexino_F3_ACC.obj (PwmoutInit)
../blockset/rtw/lib/HANcoder_Olimexino_STM32_F3_RTL.a(timein.obj)
                              ../blockset/rtw/lib/HANcoder_Olimexino_STM32_F3_RTL.a(pwmout.obj) (TimeinClearITPendingBit)
../blockset/rtw/lib/HANcoder_Olimexino_STM32_F3_RTL.a(usbcom.obj)
                              XcpTargetSpecific.obj (UsbComTransmit)
../blockset/rtw/lib/HANcoder_Olimexino_STM32_F3_RTL.a(usb_pwr.obj)
                              ../blockset/rtw/lib/HANcoder_Olimexino_STM32_F3_RTL.a(usbcom.obj) (bDeviceState)
../blockset/rtw/lib/HANcoder_Olimexino_STM32_F3_RTL.a(stackOverflowHook.obj)
                              ../blockset/rtw/lib/HANcoder_Olimexino_STM32_F3_RTL.a(tasks.obj) (vApplicationStackOverflowHook)
../blockset/rtw/lib/HANcoder_Olimexino_STM32_F3_RTL.a(mac.obj)
                              HANcoder_Olimexino_F3_ACC.obj (MacUsbComInit)
../blockset/rtw/lib/HANcoder_Olimexino_STM32_F3_RTL.a(uart.obj)
                              ../blockset/rtw/lib/HANcoder_Olimexino_STM32_F3_RTL.a(mac.obj) (UartInit)
../blockset/rtw/lib/HANcoder_Olimexino_STM32_F3_RTL.a(timeout.obj)
                              ../blockset/rtw/lib/HANcoder_Olimexino_STM32_F3_RTL.a(vectors.obj) (Timeout1UpdateInterrupt)
../blockset/rtw/lib/HANcoder_Olimexino_STM32_F3_RTL.a(cstart.obj)
                              ../blockset/rtw/lib/HANcoder_Olimexino_STM32_F3_RTL.a(vectors.obj) (Reset_Handler)
../blockset/rtw/lib/HANcoder_Olimexino_STM32_F3_RTL.a(list.obj)
                              ../blockset/rtw/lib/HANcoder_Olimexino_STM32_F3_RTL.a(queue.obj) (vListInitialise)
../blockset/rtw/lib/HANcoder_Olimexino_STM32_F3_RTL.a(system_stm32f30x.obj)
                              ../blockset/rtw/lib/HANcoder_Olimexino_STM32_F3_RTL.a(cstart.obj) (SystemInit)
../blockset/rtw/lib/HANcoder_Olimexino_STM32_F3_RTL.a(stm32f30x_flash.obj)
                              ../blockset/rtw/lib/HANcoder_Olimexino_STM32_F3_RTL.a(eeprom_sim.obj) (FLASH_Unlock)
../blockset/rtw/lib/HANcoder_Olimexino_STM32_F3_RTL.a(stm32f30x_tim.obj)
                              ../blockset/rtw/lib/HANcoder_Olimexino_STM32_F3_RTL.a(quadencoder.obj) (TIM_TimeBaseInit)
../blockset/rtw/lib/HANcoder_Olimexino_STM32_F3_RTL.a(stm32f30x_usart.obj)
                              ../blockset/rtw/lib/HANcoder_Olimexino_STM32_F3_RTL.a(uart.obj) (USART_Init)
../blockset/rtw/lib/HANcoder_Olimexino_STM32_F3_RTL.a(usb_init.obj)
                              ../blockset/rtw/lib/HANcoder_Olimexino_STM32_F3_RTL.a(usbcom.obj) (USB_Init)
../blockset/rtw/lib/HANcoder_Olimexino_STM32_F3_RTL.a(usb_mem.obj)
                              ../blockset/rtw/lib/HANcoder_Olimexino_STM32_F3_RTL.a(usbcom.obj) (UserToPMABufferCopy)
../blockset/rtw/lib/HANcoder_Olimexino_STM32_F3_RTL.a(usb_regs.obj)
                              ../blockset/rtw/lib/HANcoder_Olimexino_STM32_F3_RTL.a(usbcom.obj) (SetEPTxValid)
../blockset/rtw/lib/HANcoder_Olimexino_STM32_F3_RTL.a(usb_desc.obj)
                              ../blockset/rtw/lib/HANcoder_Olimexino_STM32_F3_RTL.a(usbcom.obj) (Virtual_Com_Port_StringSerial)
../blockset/rtw/lib/HANcoder_Olimexino_STM32_F3_RTL.a(usb_istr.obj)
                              ../blockset/rtw/lib/HANcoder_Olimexino_STM32_F3_RTL.a(usbcom.obj) (USB_Istr)
../blockset/rtw/lib/HANcoder_Olimexino_STM32_F3_RTL.a(usb_prop.obj)
                              ../blockset/rtw/lib/HANcoder_Olimexino_STM32_F3_RTL.a(usb_init.obj) (User_Standard_Requests)
../blockset/rtw/lib/HANcoder_Olimexino_STM32_F3_RTL.a(usb_core.obj)
                              ../blockset/rtw/lib/HANcoder_Olimexino_STM32_F3_RTL.a(usb_prop.obj) (Standard_GetDescriptorData)
../blockset/rtw/lib/HANcoder_Olimexino_STM32_F3_RTL.a(usb_int.obj)
                              ../blockset/rtw/lib/HANcoder_Olimexino_STM32_F3_RTL.a(usb_istr.obj) (CTR_LP)
../blockset/rtw/lib/HANcoder_Olimexino_STM32_F3_RTL.a(usb_sil.obj)
                              ../blockset/rtw/lib/HANcoder_Olimexino_STM32_F3_RTL.a(usb_prop.obj) (USB_SIL_Init)
../blockset/rtw/lib/HANcoder_Olimexino_STM32_F3_RTL.a(usb_endp.obj)
                              ../blockset/rtw/lib/HANcoder_Olimexino_STM32_F3_RTL.a(usb_istr.obj) (EP1_IN_Callback)
c:/program files (x86)/gnu arm embedded toolchain/10 2021.10/bin/../lib/gcc/arm-none-eabi/10.3.1/../../../../arm-none-eabi/lib/thumb/v7e-m+fp/softfp\libm.a(lib_a-s_floor.o)
                              HANcoder_Olimexino_F3_ACC.obj (floor)
c:/program files (x86)/gnu arm embedded toolchain/10 2021.10/bin/../lib/gcc/arm-none-eabi/10.3.1/thumb/v7e-m+fp/softfp\libgcc.a(_arm_muldf3.o)
                              HANcoder_Olimexino_F3_ACC.obj (__aeabi_dmul)
c:/program files (x86)/gnu arm embedded toolchain/10 2021.10/bin/../lib/gcc/arm-none-eabi/10.3.1/thumb/v7e-m+fp/softfp\libgcc.a(_arm_addsubdf3.o)
                              HANcoder_Olimexino_F3_ACC.obj (__aeabi_dsub)
c:/program files (x86)/gnu arm embedded toolchain/10 2021.10/bin/../lib/gcc/arm-none-eabi/10.3.1/thumb/v7e-m+fp/softfp\libgcc.a(_arm_muldivdf3.o)
                              HANcoder_Olimexino_F3_ACC.obj (__aeabi_ddiv)
c:/program files (x86)/gnu arm embedded toolchain/10 2021.10/bin/../lib/gcc/arm-none-eabi/10.3.1/thumb/v7e-m+fp/softfp\libgcc.a(_arm_cmpdf2.o)
                              HANcoder_Olimexino_F3_ACC.obj (__aeabi_dcmpeq)
c:/program files (x86)/gnu arm embedded toolchain/10 2021.10/bin/../lib/gcc/arm-none-eabi/10.3.1/thumb/v7e-m+fp/softfp\libgcc.a(_arm_fixdfsi.o)
                              HANcoder_Olimexino_F3_ACC.obj (__aeabi_d2iz)
c:/program files (x86)/gnu arm embedded toolchain/10 2021.10/bin/../lib/gcc/arm-none-eabi/10.3.1/thumb/v7e-m+fp/softfp\libgcc.a(_arm_fixunsdfsi.o)
                              HANcoder_Olimexino_F3_ACC.obj (__aeabi_d2uiz)
c:/program files (x86)/gnu arm embedded toolchain/10 2021.10/bin/../lib/gcc/arm-none-eabi/10.3.1/../../../../arm-none-eabi/lib/thumb/v7e-m+fp/softfp\libg.a(lib_a-memcpy.o)
                              HANcoder_Olimexino_F3_ACC.obj (memcpy)
c:/program files (x86)/gnu arm embedded toolchain/10 2021.10/bin/../lib/gcc/arm-none-eabi/10.3.1/../../../../arm-none-eabi/lib/thumb/v7e-m+fp/softfp\libg.a(lib_a-memset.o)
                              HANcoder_Olimexino_F3_ACC.obj (memset)
c:/program files (x86)/gnu arm embedded toolchain/10 2021.10/bin/../lib/gcc/arm-none-eabi/10.3.1/../../../../arm-none-eabi/lib/thumb/v7e-m+fp/softfp\libg.a(lib_a-strlen.o)
                              ../blockset/rtw/lib/HANcoder_Olimexino_STM32_F3_RTL.a(os.obj) (strlen)

Allocating common symbols
Common symbol       size              file

SaveRState          0x2               ../blockset/rtw/lib/HANcoder_Olimexino_STM32_F3_RTL.a(usb_int.obj)
xcpMemoryStack      0x800             ../blockset/rtw/lib/HANcoder_Olimexino_STM32_F3_RTL.a(XcpStack.obj)
SaveState           0x2               ../blockset/rtw/lib/HANcoder_Olimexino_STM32_F3_RTL.a(usb_init.obj)
wIstr               0x2               ../blockset/rtw/lib/HANcoder_Olimexino_STM32_F3_RTL.a(usb_istr.obj)
pProperty           0x4               ../blockset/rtw/lib/HANcoder_Olimexino_STM32_F3_RTL.a(usb_init.obj)
EPindex             0x1               ../blockset/rtw/lib/HANcoder_Olimexino_STM32_F3_RTL.a(usb_init.obj)
SaveTState          0x2               ../blockset/rtw/lib/HANcoder_Olimexino_STM32_F3_RTL.a(usb_int.obj)
Device_Info         0x1c              ../blockset/rtw/lib/HANcoder_Olimexino_STM32_F3_RTL.a(usb_init.obj)
pUser_Standard_Requests
                    0x4               ../blockset/rtw/lib/HANcoder_Olimexino_STM32_F3_RTL.a(usb_init.obj)
USB_Rx_Buffer       0x40              ../blockset/rtw/lib/HANcoder_Olimexino_STM32_F3_RTL.a(usb_endp.obj)
USART_Rx_Buffer     0x200             ../blockset/rtw/lib/HANcoder_Olimexino_STM32_F3_RTL.a(usbcom.obj)
StatusInfo          0x2               ../blockset/rtw/lib/HANcoder_Olimexino_STM32_F3_RTL.a(usb_core.obj)
pInformation        0x4               ../blockset/rtw/lib/HANcoder_Olimexino_STM32_F3_RTL.a(usb_init.obj)
ResumeS             0x2               ../blockset/rtw/lib/HANcoder_Olimexino_STM32_F3_RTL.a(usb_pwr.obj)
memoryStackPointer  0x4               ../blockset/rtw/lib/HANcoder_Olimexino_STM32_F3_RTL.a(XcpStack.obj)
xcpWrite            0x8               ../blockset/rtw/lib/HANcoder_Olimexino_STM32_F3_RTL.a(XcpStack.obj)
wInterrupt_Mask     0x2               ../blockset/rtw/lib/HANcoder_Olimexino_STM32_F3_RTL.a(usb_init.obj)

Discarded input sections

 .text          0x00000000        0x0 HANcoder_Olimexino_F3_ACC_data.obj
 .data          0x00000000        0x0 HANcoder_Olimexino_F3_ACC_data.obj
 .bss           0x00000000        0x0 HANcoder_Olimexino_F3_ACC_data.obj
 .text          0x00000000        0x0 model.obj
 .data          0x00000000        0x0 model.obj
 .bss           0x00000000        0x0 model.obj
 .bss.nrFilteredADCchannels
                0x00000000        0x1 model.obj
 .text          0x00000000        0x0 XcpTargetSpecific.obj
 .data          0x00000000        0x0 XcpTargetSpecific.obj
 .bss           0x00000000        0x0 XcpTargetSpecific.obj
 .text.XcpCanConfigureParamaters
                0x00000000       0x1c XcpTargetSpecific.obj
 .text.XcpCanReceive
                0x00000000        0xc XcpTargetSpecific.obj
 .text.XcpUartConfigureParamaters
                0x00000000       0x14 XcpTargetSpecific.obj
 .text.XcpUartReceive
                0x00000000       0x78 XcpTargetSpecific.obj
 .text.XcpEthConfigureParamaters
                0x00000000        0xc XcpTargetSpecific.obj
 .text.XcpEthReceive
                0x00000000        0xc XcpTargetSpecific.obj
 .text.XcpSendBufferCheck
                0x00000000        0x4 XcpTargetSpecific.obj
 .bss.length.1  0x00000000        0x1 XcpTargetSpecific.obj
 .text          0x00000000        0x0 HANcoder_Olimexino_F3_ACC.obj
 .data          0x00000000        0x0 HANcoder_Olimexino_F3_ACC.obj
 .bss           0x00000000        0x0 HANcoder_Olimexino_F3_ACC.obj
 .text.ByteSwap_x
                0x00000000       0x3c HANcoder_Olimexino_F3_ACC.obj
 .text          0x00000000        0x0 ../blockset/rtw/lib/HANcoder_Olimexino_STM32_F3_RTL.a(XcpStack.obj)
 .data          0x00000000        0x0 ../blockset/rtw/lib/HANcoder_Olimexino_STM32_F3_RTL.a(XcpStack.obj)
 .bss           0x00000000        0x0 ../blockset/rtw/lib/HANcoder_Olimexino_STM32_F3_RTL.a(XcpStack.obj)
 .text.XcpMonitorMemoryUsage
                0x00000000        0xc ../blockset/rtw/lib/HANcoder_Olimexino_STM32_F3_RTL.a(XcpStack.obj)
 .text          0x00000000        0x0 ../blockset/rtw/lib/HANcoder_Olimexino_STM32_F3_RTL.a(app.obj)
 .data          0x00000000        0x0 ../blockset/rtw/lib/HANcoder_Olimexino_STM32_F3_RTL.a(app.obj)
 .bss           0x00000000        0x0 ../blockset/rtw/lib/HANcoder_Olimexino_STM32_F3_RTL.a(app.obj)
 .text          0x00000000        0x0 ../blockset/rtw/lib/HANcoder_Olimexino_STM32_F3_RTL.a(anin.obj)
 .data          0x00000000        0x0 ../blockset/rtw/lib/HANcoder_Olimexino_STM32_F3_RTL.a(anin.obj)
 .bss           0x00000000        0x0 ../blockset/rtw/lib/HANcoder_Olimexino_STM32_F3_RTL.a(anin.obj)
 .text.AninConfigure
                0x00000000      0x208 ../blockset/rtw/lib/HANcoder_Olimexino_STM32_F3_RTL.a(anin.obj)
 .text.AninGet  0x00000000       0x8c ../blockset/rtw/lib/HANcoder_Olimexino_STM32_F3_RTL.a(anin.obj)
 .text.AninConvert
                0x00000000       0x14 ../blockset/rtw/lib/HANcoder_Olimexino_STM32_F3_RTL.a(anin.obj)
 .text          0x00000000        0x0 ../blockset/rtw/lib/HANcoder_Olimexino_STM32_F3_RTL.a(can.obj)
 .data          0x00000000        0x0 ../blockset/rtw/lib/HANcoder_Olimexino_STM32_F3_RTL.a(can.obj)
 .bss           0x00000000        0x0 ../blockset/rtw/lib/HANcoder_Olimexino_STM32_F3_RTL.a(can.obj)
 .text.CanDisconnect
                0x00000000       0xc8 ../blockset/rtw/lib/HANcoder_Olimexino_STM32_F3_RTL.a(can.obj)
 .text.CanIsConnected
                0x00000000        0xc ../blockset/rtw/lib/HANcoder_Olimexino_STM32_F3_RTL.a(can.obj)
 .text.CanCancelTransmit
                0x00000000       0x30 ../blockset/rtw/lib/HANcoder_Olimexino_STM32_F3_RTL.a(can.obj)
 .text.CanGetErrorCount
                0x00000000       0x48 ../blockset/rtw/lib/HANcoder_Olimexino_STM32_F3_RTL.a(can.obj)
 .text.CanRegisterErrorCallback
                0x00000000       0x18 ../blockset/rtw/lib/HANcoder_Olimexino_STM32_F3_RTL.a(can.obj)
 .text          0x00000000        0x0 ../blockset/rtw/lib/HANcoder_Olimexino_STM32_F3_RTL.a(canio.obj)
 .data          0x00000000        0x0 ../blockset/rtw/lib/HANcoder_Olimexino_STM32_F3_RTL.a(canio.obj)
 .bss           0x00000000        0x0 ../blockset/rtw/lib/HANcoder_Olimexino_STM32_F3_RTL.a(canio.obj)
 .text.CanIoRegisterMessageTransmittedCallback
                0x00000000       0x44 ../blockset/rtw/lib/HANcoder_Olimexino_STM32_F3_RTL.a(canio.obj)
 .text.CanIoRegisterUnmatchedMessageReceivedCallback
                0x00000000        0xc ../blockset/rtw/lib/HANcoder_Olimexino_STM32_F3_RTL.a(canio.obj)
 .text          0x00000000        0x0 ../blockset/rtw/lib/HANcoder_Olimexino_STM32_F3_RTL.a(digin.obj)
 .data          0x00000000        0x0 ../blockset/rtw/lib/HANcoder_Olimexino_STM32_F3_RTL.a(digin.obj)
 .bss           0x00000000        0x0 ../blockset/rtw/lib/HANcoder_Olimexino_STM32_F3_RTL.a(digin.obj)
 .text          0x00000000        0x0 ../blockset/rtw/lib/HANcoder_Olimexino_STM32_F3_RTL.a(os.obj)
 .data          0x00000000        0x0 ../blockset/rtw/lib/HANcoder_Olimexino_STM32_F3_RTL.a(os.obj)
 .bss           0x00000000        0x0 ../blockset/rtw/lib/HANcoder_Olimexino_STM32_F3_RTL.a(os.obj)
 .text.OsGetCpuLoadMax
                0x00000000        0xc ../blockset/rtw/lib/HANcoder_Olimexino_STM32_F3_RTL.a(os.obj)
 .text.OsTaskDeletedCallback
                0x00000000       0x54 ../blockset/rtw/lib/HANcoder_Olimexino_STM32_F3_RTL.a(os.obj)
 .text.OsGetSystemTime
                0x00000000        0xc ../blockset/rtw/lib/HANcoder_Olimexino_STM32_F3_RTL.a(os.obj)
 .text          0x00000000        0x0 ../blockset/rtw/lib/HANcoder_Olimexino_STM32_F3_RTL.a(queue.obj)
 .data          0x00000000        0x0 ../blockset/rtw/lib/HANcoder_Olimexino_STM32_F3_RTL.a(queue.obj)
 .bss           0x00000000        0x0 ../blockset/rtw/lib/HANcoder_Olimexino_STM32_F3_RTL.a(queue.obj)
 .text.xQueueCreateCountingSemaphore
                0x00000000       0x4c ../blockset/rtw/lib/HANcoder_Olimexino_STM32_F3_RTL.a(queue.obj)
 .text.xQueueCreateMutex
                0x00000000       0x44 ../blockset/rtw/lib/HANcoder_Olimexino_STM32_F3_RTL.a(queue.obj)
 .text.xQueueGiveMutexRecursive
                0x00000000       0x40 ../blockset/rtw/lib/HANcoder_Olimexino_STM32_F3_RTL.a(queue.obj)
 .text.xQueueGiveFromISR
                0x00000000       0x9c ../blockset/rtw/lib/HANcoder_Olimexino_STM32_F3_RTL.a(queue.obj)
 .text.xQueueTakeMutexRecursive
                0x00000000       0x48 ../blockset/rtw/lib/HANcoder_Olimexino_STM32_F3_RTL.a(queue.obj)
 .text.xQueuePeekFromISR
                0x00000000       0x6c ../blockset/rtw/lib/HANcoder_Olimexino_STM32_F3_RTL.a(queue.obj)
 .text.uxQueueMessagesWaiting
                0x00000000       0x24 ../blockset/rtw/lib/HANcoder_Olimexino_STM32_F3_RTL.a(queue.obj)
 .text.uxQueueSpacesAvailable
                0x00000000       0x28 ../blockset/rtw/lib/HANcoder_Olimexino_STM32_F3_RTL.a(queue.obj)
 .text.vQueueDelete
                0x00000000       0x28 ../blockset/rtw/lib/HANcoder_Olimexino_STM32_F3_RTL.a(queue.obj)
 .text.xQueueIsQueueEmptyFromISR
                0x00000000       0x20 ../blockset/rtw/lib/HANcoder_Olimexino_STM32_F3_RTL.a(queue.obj)
 .text.xQueueIsQueueFullFromISR
                0x00000000       0x24 ../blockset/rtw/lib/HANcoder_Olimexino_STM32_F3_RTL.a(queue.obj)
 .text          0x00000000        0x0 ../blockset/rtw/lib/HANcoder_Olimexino_STM32_F3_RTL.a(tasks.obj)
 .data          0x00000000        0x0 ../blockset/rtw/lib/HANcoder_Olimexino_STM32_F3_RTL.a(tasks.obj)
 .bss           0x00000000        0x0 ../blockset/rtw/lib/HANcoder_Olimexino_STM32_F3_RTL.a(tasks.obj)
 .text.eTaskGetState
                0x00000000       0x68 ../blockset/rtw/lib/HANcoder_Olimexino_STM32_F3_RTL.a(tasks.obj)
 .text.xTaskResumeFromISR
                0x00000000       0xb8 ../blockset/rtw/lib/HANcoder_Olimexino_STM32_F3_RTL.a(tasks.obj)
 .text.vTaskEndScheduler
                0x00000000       0x18 ../blockset/rtw/lib/HANcoder_Olimexino_STM32_F3_RTL.a(tasks.obj)
 .text.xTaskGetTickCountFromISR
                0x00000000       0x10 ../blockset/rtw/lib/HANcoder_Olimexino_STM32_F3_RTL.a(tasks.obj)
 .text.uxTaskGetNumberOfTasks
                0x00000000        0xc ../blockset/rtw/lib/HANcoder_Olimexino_STM32_F3_RTL.a(tasks.obj)
 .text.xTaskGetIdleTaskHandle
                0x00000000       0x20 ../blockset/rtw/lib/HANcoder_Olimexino_STM32_F3_RTL.a(tasks.obj)
 .text.vTaskDelay
                0x00000000       0x74 ../blockset/rtw/lib/HANcoder_Olimexino_STM32_F3_RTL.a(tasks.obj)
 .text.vTaskPlaceOnUnorderedEventList
                0x00000000       0x94 ../blockset/rtw/lib/HANcoder_Olimexino_STM32_F3_RTL.a(tasks.obj)
 .text.xTaskRemoveFromUnorderedEventList
                0x00000000       0x8c ../blockset/rtw/lib/HANcoder_Olimexino_STM32_F3_RTL.a(tasks.obj)
 .text.xTaskGetCurrentTaskHandle
                0x00000000        0xc ../blockset/rtw/lib/HANcoder_Olimexino_STM32_F3_RTL.a(tasks.obj)
 .text.uxTaskResetEventItemValue
                0x00000000       0x18 ../blockset/rtw/lib/HANcoder_Olimexino_STM32_F3_RTL.a(tasks.obj)
 .text.ulTaskNotifyTake
                0x00000000       0x98 ../blockset/rtw/lib/HANcoder_Olimexino_STM32_F3_RTL.a(tasks.obj)
 .text.xTaskNotifyWait
                0x00000000       0xbc ../blockset/rtw/lib/HANcoder_Olimexino_STM32_F3_RTL.a(tasks.obj)
 .text.xTaskGenericNotify
                0x00000000       0xc0 ../blockset/rtw/lib/HANcoder_Olimexino_STM32_F3_RTL.a(tasks.obj)
 .text.xTaskGenericNotifyFromISR
                0x00000000       0xfc ../blockset/rtw/lib/HANcoder_Olimexino_STM32_F3_RTL.a(tasks.obj)
 .text.vTaskNotifyGiveFromISR
                0x00000000       0xc8 ../blockset/rtw/lib/HANcoder_Olimexino_STM32_F3_RTL.a(tasks.obj)
 .text.xTaskNotifyStateClear
                0x00000000       0x30 ../blockset/rtw/lib/HANcoder_Olimexino_STM32_F3_RTL.a(tasks.obj)
 .text          0x00000000        0x0 ../blockset/rtw/lib/HANcoder_Olimexino_STM32_F3_RTL.a(timers.obj)
 .data          0x00000000        0x0 ../blockset/rtw/lib/HANcoder_Olimexino_STM32_F3_RTL.a(timers.obj)
 .bss           0x00000000        0x0 ../blockset/rtw/lib/HANcoder_Olimexino_STM32_F3_RTL.a(timers.obj)
 .text.pcTimerGetTimerName
                0x00000000       0x1c ../blockset/rtw/lib/HANcoder_Olimexino_STM32_F3_RTL.a(timers.obj)
 .text.xTimerIsTimerActive
                0x00000000       0x2c ../blockset/rtw/lib/HANcoder_Olimexino_STM32_F3_RTL.a(timers.obj)
 .text.pvTimerGetTimerID
                0x00000000       0x24 ../blockset/rtw/lib/HANcoder_Olimexino_STM32_F3_RTL.a(timers.obj)
 .text.vTimerSetTimerID
                0x00000000       0x34 ../blockset/rtw/lib/HANcoder_Olimexino_STM32_F3_RTL.a(timers.obj)
 .text          0x00000000        0x0 ../blockset/rtw/lib/HANcoder_Olimexino_STM32_F3_RTL.a(port.obj)
 .data          0x00000000        0x0 ../blockset/rtw/lib/HANcoder_Olimexino_STM32_F3_RTL.a(port.obj)
 .bss           0x00000000        0x0 ../blockset/rtw/lib/HANcoder_Olimexino_STM32_F3_RTL.a(port.obj)
 .text.vPortEndScheduler
                0x00000000       0x20 ../blockset/rtw/lib/HANcoder_Olimexino_STM32_F3_RTL.a(port.obj)
 .text          0x00000000        0x0 ../blockset/rtw/lib/HANcoder_Olimexino_STM32_F3_RTL.a(heap_4.obj)
 .data          0x00000000        0x0 ../blockset/rtw/lib/HANcoder_Olimexino_STM32_F3_RTL.a(heap_4.obj)
 .bss           0x00000000        0x0 ../blockset/rtw/lib/HANcoder_Olimexino_STM32_F3_RTL.a(heap_4.obj)
 .text.xPortGetMinimumEverFreeHeapSize
                0x00000000        0xc ../blockset/rtw/lib/HANcoder_Olimexino_STM32_F3_RTL.a(heap_4.obj)
 .text.vPortInitialiseBlocks
                0x00000000        0x4 ../blockset/rtw/lib/HANcoder_Olimexino_STM32_F3_RTL.a(heap_4.obj)
 .text          0x00000000        0x0 ../blockset/rtw/lib/HANcoder_Olimexino_STM32_F3_RTL.a(misc.obj)
 .data          0x00000000        0x0 ../blockset/rtw/lib/HANcoder_Olimexino_STM32_F3_RTL.a(misc.obj)
 .bss           0x00000000        0x0 ../blockset/rtw/lib/HANcoder_Olimexino_STM32_F3_RTL.a(misc.obj)
 .text.NVIC_SetVectorTable
                0x00000000       0x14 ../blockset/rtw/lib/HANcoder_Olimexino_STM32_F3_RTL.a(misc.obj)
 .text.NVIC_SystemLPConfig
                0x00000000       0x18 ../blockset/rtw/lib/HANcoder_Olimexino_STM32_F3_RTL.a(misc.obj)
 .text.SysTick_CLKSourceConfig
                0x00000000       0x18 ../blockset/rtw/lib/HANcoder_Olimexino_STM32_F3_RTL.a(misc.obj)
 .text          0x00000000        0x0 ../blockset/rtw/lib/HANcoder_Olimexino_STM32_F3_RTL.a(stm32f30x_adc.obj)
 .data          0x00000000        0x0 ../blockset/rtw/lib/HANcoder_Olimexino_STM32_F3_RTL.a(stm32f30x_adc.obj)
 .bss           0x00000000        0x0 ../blockset/rtw/lib/HANcoder_Olimexino_STM32_F3_RTL.a(stm32f30x_adc.obj)
 .text.ADC_StructInit
                0x00000000       0x18 ../blockset/rtw/lib/HANcoder_Olimexino_STM32_F3_RTL.a(stm32f30x_adc.obj)
 .text.ADC_InjectedInit
                0x00000000       0x30 ../blockset/rtw/lib/HANcoder_Olimexino_STM32_F3_RTL.a(stm32f30x_adc.obj)
 .text.ADC_InjectedStructInit
                0x00000000       0x14 ../blockset/rtw/lib/HANcoder_Olimexino_STM32_F3_RTL.a(stm32f30x_adc.obj)
 .text.ADC_CommonInit
                0x00000000       0x7c ../blockset/rtw/lib/HANcoder_Olimexino_STM32_F3_RTL.a(stm32f30x_adc.obj)
 .text.ADC_CommonStructInit
                0x00000000       0x10 ../blockset/rtw/lib/HANcoder_Olimexino_STM32_F3_RTL.a(stm32f30x_adc.obj)
 .text.ADC_StartCalibration
                0x00000000        0xc ../blockset/rtw/lib/HANcoder_Olimexino_STM32_F3_RTL.a(stm32f30x_adc.obj)
 .text.ADC_GetCalibrationValue
                0x00000000        0x8 ../blockset/rtw/lib/HANcoder_Olimexino_STM32_F3_RTL.a(stm32f30x_adc.obj)
 .text.ADC_SetCalibrationValue
                0x00000000        0x8 ../blockset/rtw/lib/HANcoder_Olimexino_STM32_F3_RTL.a(stm32f30x_adc.obj)
 .text.ADC_SelectCalibrationMode
                0x00000000       0x10 ../blockset/rtw/lib/HANcoder_Olimexino_STM32_F3_RTL.a(stm32f30x_adc.obj)
 .text.ADC_GetCalibrationStatus
                0x00000000        0x8 ../blockset/rtw/lib/HANcoder_Olimexino_STM32_F3_RTL.a(stm32f30x_adc.obj)
 .text.ADC_DisableCmd
                0x00000000        0xc ../blockset/rtw/lib/HANcoder_Olimexino_STM32_F3_RTL.a(stm32f30x_adc.obj)
 .text.ADC_GetDisableCmdStatus
                0x00000000        0x8 ../blockset/rtw/lib/HANcoder_Olimexino_STM32_F3_RTL.a(stm32f30x_adc.obj)
 .text.ADC_VoltageRegulatorCmd
                0x00000000       0x1c ../blockset/rtw/lib/HANcoder_Olimexino_STM32_F3_RTL.a(stm32f30x_adc.obj)
 .text.ADC_SelectDifferentialMode
                0x00000000       0x28 ../blockset/rtw/lib/HANcoder_Olimexino_STM32_F3_RTL.a(stm32f30x_adc.obj)
 .text.ADC_SelectQueueOfContextMode
                0x00000000       0x14 ../blockset/rtw/lib/HANcoder_Olimexino_STM32_F3_RTL.a(stm32f30x_adc.obj)
 .text.ADC_AutoDelayCmd
                0x00000000       0x14 ../blockset/rtw/lib/HANcoder_Olimexino_STM32_F3_RTL.a(stm32f30x_adc.obj)
 .text.ADC_AnalogWatchdogCmd
                0x00000000        0xc ../blockset/rtw/lib/HANcoder_Olimexino_STM32_F3_RTL.a(stm32f30x_adc.obj)
 .text.ADC_AnalogWatchdog1ThresholdsConfig
                0x00000000       0x28 ../blockset/rtw/lib/HANcoder_Olimexino_STM32_F3_RTL.a(stm32f30x_adc.obj)
 .text.ADC_AnalogWatchdog2ThresholdsConfig
                0x00000000       0x20 ../blockset/rtw/lib/HANcoder_Olimexino_STM32_F3_RTL.a(stm32f30x_adc.obj)
 .text.ADC_AnalogWatchdog3ThresholdsConfig
                0x00000000       0x20 ../blockset/rtw/lib/HANcoder_Olimexino_STM32_F3_RTL.a(stm32f30x_adc.obj)
 .text.ADC_AnalogWatchdog1SingleChannelConfig
                0x00000000       0x10 ../blockset/rtw/lib/HANcoder_Olimexino_STM32_F3_RTL.a(stm32f30x_adc.obj)
 .text.ADC_AnalogWatchdog2SingleChannelConfig
                0x00000000       0x28 ../blockset/rtw/lib/HANcoder_Olimexino_STM32_F3_RTL.a(stm32f30x_adc.obj)
 .text.ADC_AnalogWatchdog3SingleChannelConfig
                0x00000000       0x28 ../blockset/rtw/lib/HANcoder_Olimexino_STM32_F3_RTL.a(stm32f30x_adc.obj)
 .text.ADC_TempSensorCmd
                0x00000000       0x38 ../blockset/rtw/lib/HANcoder_Olimexino_STM32_F3_RTL.a(stm32f30x_adc.obj)
 .text.ADC_VrefintCmd
                0x00000000       0x38 ../blockset/rtw/lib/HANcoder_Olimexino_STM32_F3_RTL.a(stm32f30x_adc.obj)
 .text.ADC_VbatCmd
                0x00000000       0x38 ../blockset/rtw/lib/HANcoder_Olimexino_STM32_F3_RTL.a(stm32f30x_adc.obj)
 .text.ADC_RegularChannelSequencerLengthConfig
                0x00000000       0x14 ../blockset/rtw/lib/HANcoder_Olimexino_STM32_F3_RTL.a(stm32f30x_adc.obj)
 .text.ADC_ExternalTriggerConfig
                0x00000000       0x14 ../blockset/rtw/lib/HANcoder_Olimexino_STM32_F3_RTL.a(stm32f30x_adc.obj)
 .text.ADC_GetStartConversionStatus
                0x00000000        0x8 ../blockset/rtw/lib/HANcoder_Olimexino_STM32_F3_RTL.a(stm32f30x_adc.obj)
 .text.ADC_StopConversion
                0x00000000        0xc ../blockset/rtw/lib/HANcoder_Olimexino_STM32_F3_RTL.a(stm32f30x_adc.obj)
 .text.ADC_DiscModeChannelCountConfig
                0x00000000       0x10 ../blockset/rtw/lib/HANcoder_Olimexino_STM32_F3_RTL.a(stm32f30x_adc.obj)
 .text.ADC_DiscModeCmd
                0x00000000       0x14 ../blockset/rtw/lib/HANcoder_Olimexino_STM32_F3_RTL.a(stm32f30x_adc.obj)
 .text.ADC_GetConversionValue
                0x00000000        0x8 ../blockset/rtw/lib/HANcoder_Olimexino_STM32_F3_RTL.a(stm32f30x_adc.obj)
 .text.ADC_GetDualModeConversionValue
                0x00000000       0x24 ../blockset/rtw/lib/HANcoder_Olimexino_STM32_F3_RTL.a(stm32f30x_adc.obj)
 .text.ADC_SetChannelOffset1
                0x00000000       0x24 ../blockset/rtw/lib/HANcoder_Olimexino_STM32_F3_RTL.a(stm32f30x_adc.obj)
 .text.ADC_SetChannelOffset2
                0x00000000       0x24 ../blockset/rtw/lib/HANcoder_Olimexino_STM32_F3_RTL.a(stm32f30x_adc.obj)
 .text.ADC_SetChannelOffset3
                0x00000000       0x24 ../blockset/rtw/lib/HANcoder_Olimexino_STM32_F3_RTL.a(stm32f30x_adc.obj)
 .text.ADC_SetChannelOffset4
                0x00000000       0x24 ../blockset/rtw/lib/HANcoder_Olimexino_STM32_F3_RTL.a(stm32f30x_adc.obj)
 .text.ADC_ChannelOffset1Cmd
                0x00000000       0x14 ../blockset/rtw/lib/HANcoder_Olimexino_STM32_F3_RTL.a(stm32f30x_adc.obj)
 .text.ADC_ChannelOffset2Cmd
                0x00000000       0x14 ../blockset/rtw/lib/HANcoder_Olimexino_STM32_F3_RTL.a(stm32f30x_adc.obj)
 .text.ADC_ChannelOffset3Cmd
                0x00000000       0x14 ../blockset/rtw/lib/HANcoder_Olimexino_STM32_F3_RTL.a(stm32f30x_adc.obj)
 .text.ADC_ChannelOffset4Cmd
                0x00000000       0x14 ../blockset/rtw/lib/HANcoder_Olimexino_STM32_F3_RTL.a(stm32f30x_adc.obj)
 .text.ADC_InjectedChannelConfig
                0x00000000       0x54 ../blockset/rtw/lib/HANcoder_Olimexino_STM32_F3_RTL.a(stm32f30x_adc.obj)
 .text.ADC_InjectedSequencerLengthConfig
                0x00000000       0x10 ../blockset/rtw/lib/HANcoder_Olimexino_STM32_F3_RTL.a(stm32f30x_adc.obj)
 .text.ADC_ExternalTriggerInjectedConfig
                0x00000000       0x14 ../blockset/rtw/lib/HANcoder_Olimexino_STM32_F3_RTL.a(stm32f30x_adc.obj)
 .text.ADC_StartInjectedConversion
                0x00000000        0xc ../blockset/rtw/lib/HANcoder_Olimexino_STM32_F3_RTL.a(stm32f30x_adc.obj)
 .text.ADC_StopInjectedConversion
                0x00000000        0xc ../blockset/rtw/lib/HANcoder_Olimexino_STM32_F3_RTL.a(stm32f30x_adc.obj)
 .text.ADC_GetStartInjectedConversionStatus
                0x00000000        0x8 ../blockset/rtw/lib/HANcoder_Olimexino_STM32_F3_RTL.a(stm32f30x_adc.obj)
 .text.ADC_AutoInjectedConvCmd
                0x00000000       0x14 ../blockset/rtw/lib/HANcoder_Olimexino_STM32_F3_RTL.a(stm32f30x_adc.obj)
 .text.ADC_InjectedDiscModeCmd
                0x00000000       0x14 ../blockset/rtw/lib/HANcoder_Olimexino_STM32_F3_RTL.a(stm32f30x_adc.obj)
 .text.ADC_GetInjectedConversionValue
                0x00000000       0x1c ../blockset/rtw/lib/HANcoder_Olimexino_STM32_F3_RTL.a(stm32f30x_adc.obj)
 .text.ADC_ITConfig
                0x00000000       0x14 ../blockset/rtw/lib/HANcoder_Olimexino_STM32_F3_RTL.a(stm32f30x_adc.obj)
 .text.ADC_ClearFlag
                0x00000000        0x4 ../blockset/rtw/lib/HANcoder_Olimexino_STM32_F3_RTL.a(stm32f30x_adc.obj)
 .text.ADC_GetCommonFlagStatus
                0x00000000       0x2c ../blockset/rtw/lib/HANcoder_Olimexino_STM32_F3_RTL.a(stm32f30x_adc.obj)
 .text.ADC_ClearCommonFlag
                0x00000000       0x2c ../blockset/rtw/lib/HANcoder_Olimexino_STM32_F3_RTL.a(stm32f30x_adc.obj)
 .text.ADC_GetITStatus
                0x00000000       0x18 ../blockset/rtw/lib/HANcoder_Olimexino_STM32_F3_RTL.a(stm32f30x_adc.obj)
 .text.ADC_ClearITPendingBit
                0x00000000        0x8 ../blockset/rtw/lib/HANcoder_Olimexino_STM32_F3_RTL.a(stm32f30x_adc.obj)
 .text          0x00000000        0x0 ../blockset/rtw/lib/HANcoder_Olimexino_STM32_F3_RTL.a(stm32f30x_can.obj)
 .data          0x00000000        0x0 ../blockset/rtw/lib/HANcoder_Olimexino_STM32_F3_RTL.a(stm32f30x_can.obj)
 .bss           0x00000000        0x0 ../blockset/rtw/lib/HANcoder_Olimexino_STM32_F3_RTL.a(stm32f30x_can.obj)
 .text.CAN_SlaveStartBank
                0x00000000       0x3c ../blockset/rtw/lib/HANcoder_Olimexino_STM32_F3_RTL.a(stm32f30x_can.obj)
 .text.CAN_DBGFreeze
                0x00000000       0x14 ../blockset/rtw/lib/HANcoder_Olimexino_STM32_F3_RTL.a(stm32f30x_can.obj)
 .text.CAN_TTComModeCmd
                0x00000000       0x5c ../blockset/rtw/lib/HANcoder_Olimexino_STM32_F3_RTL.a(stm32f30x_can.obj)
 .text.CAN_TransmitStatus
                0x00000000       0x50 ../blockset/rtw/lib/HANcoder_Olimexino_STM32_F3_RTL.a(stm32f30x_can.obj)
 .text.CAN_CancelTransmit
                0x00000000       0x2c ../blockset/rtw/lib/HANcoder_Olimexino_STM32_F3_RTL.a(stm32f30x_can.obj)
 .text.CAN_FIFORelease
                0x00000000       0x18 ../blockset/rtw/lib/HANcoder_Olimexino_STM32_F3_RTL.a(stm32f30x_can.obj)
 .text.CAN_OperatingModeRequest
                0x00000000       0xb4 ../blockset/rtw/lib/HANcoder_Olimexino_STM32_F3_RTL.a(stm32f30x_can.obj)
 .text.CAN_Sleep
                0x00000000       0x20 ../blockset/rtw/lib/HANcoder_Olimexino_STM32_F3_RTL.a(stm32f30x_can.obj)
 .text.CAN_WakeUp
                0x00000000       0x2c ../blockset/rtw/lib/HANcoder_Olimexino_STM32_F3_RTL.a(stm32f30x_can.obj)
 .text.CAN_GetLastErrorCode
                0x00000000        0x8 ../blockset/rtw/lib/HANcoder_Olimexino_STM32_F3_RTL.a(stm32f30x_can.obj)
 .text.CAN_GetReceiveErrorCounter
                0x00000000        0x8 ../blockset/rtw/lib/HANcoder_Olimexino_STM32_F3_RTL.a(stm32f30x_can.obj)
 .text          0x00000000        0x0 ../blockset/rtw/lib/HANcoder_Olimexino_STM32_F3_RTL.a(stm32f30x_dma.obj)
 .data          0x00000000        0x0 ../blockset/rtw/lib/HANcoder_Olimexino_STM32_F3_RTL.a(stm32f30x_dma.obj)
 .bss           0x00000000        0x0 ../blockset/rtw/lib/HANcoder_Olimexino_STM32_F3_RTL.a(stm32f30x_dma.obj)
 .text.DMA_StructInit
                0x00000000       0x1c ../blockset/rtw/lib/HANcoder_Olimexino_STM32_F3_RTL.a(stm32f30x_dma.obj)
 .text.DMA_SetCurrDataCounter
                0x00000000        0x4 ../blockset/rtw/lib/HANcoder_Olimexino_STM32_F3_RTL.a(stm32f30x_dma.obj)
 .text.DMA_GetCurrDataCounter
                0x00000000        0x8 ../blockset/rtw/lib/HANcoder_Olimexino_STM32_F3_RTL.a(stm32f30x_dma.obj)
 .text.DMA_ITConfig
                0x00000000       0x14 ../blockset/rtw/lib/HANcoder_Olimexino_STM32_F3_RTL.a(stm32f30x_dma.obj)
 .text.DMA_GetITStatus
                0x00000000       0x1c ../blockset/rtw/lib/HANcoder_Olimexino_STM32_F3_RTL.a(stm32f30x_dma.obj)
 .text.DMA_GetFlagStatus
                0x00000000        0x4 ../blockset/rtw/lib/HANcoder_Olimexino_STM32_F3_RTL.a(stm32f30x_dma.obj)
 .text.DMA_ClearITPendingBit
                0x00000000       0x14 ../blockset/rtw/lib/HANcoder_Olimexino_STM32_F3_RTL.a(stm32f30x_dma.obj)
 .text.DMA_ClearFlag
                0x00000000        0x4 ../blockset/rtw/lib/HANcoder_Olimexino_STM32_F3_RTL.a(stm32f30x_dma.obj)
 .text          0x00000000        0x0 ../blockset/rtw/lib/HANcoder_Olimexino_STM32_F3_RTL.a(stm32f30x_gpio.obj)
 .data          0x00000000        0x0 ../blockset/rtw/lib/HANcoder_Olimexino_STM32_F3_RTL.a(stm32f30x_gpio.obj)
 .bss           0x00000000        0x0 ../blockset/rtw/lib/HANcoder_Olimexino_STM32_F3_RTL.a(stm32f30x_gpio.obj)
 .text.GPIO_DeInit
                0x00000000       0xcc ../blockset/rtw/lib/HANcoder_Olimexino_STM32_F3_RTL.a(stm32f30x_gpio.obj)
 .text.GPIO_StructInit
                0x00000000       0x14 ../blockset/rtw/lib/HANcoder_Olimexino_STM32_F3_RTL.a(stm32f30x_gpio.obj)
 .text.GPIO_PinLockConfig
                0x00000000       0x10 ../blockset/rtw/lib/HANcoder_Olimexino_STM32_F3_RTL.a(stm32f30x_gpio.obj)
 .text.GPIO_ReadInputData
                0x00000000        0x8 ../blockset/rtw/lib/HANcoder_Olimexino_STM32_F3_RTL.a(stm32f30x_gpio.obj)
 .text.GPIO_ReadOutputDataBit
                0x00000000        0xc ../blockset/rtw/lib/HANcoder_Olimexino_STM32_F3_RTL.a(stm32f30x_gpio.obj)
 .text.GPIO_ReadOutputData
                0x00000000        0x8 ../blockset/rtw/lib/HANcoder_Olimexino_STM32_F3_RTL.a(stm32f30x_gpio.obj)
 .text.GPIO_Write
                0x00000000        0x4 ../blockset/rtw/lib/HANcoder_Olimexino_STM32_F3_RTL.a(stm32f30x_gpio.obj)
 .text          0x00000000        0x0 ../blockset/rtw/lib/HANcoder_Olimexino_STM32_F3_RTL.a(stm32f30x_rcc.obj)
 .data          0x00000000        0x0 ../blockset/rtw/lib/HANcoder_Olimexino_STM32_F3_RTL.a(stm32f30x_rcc.obj)
 .bss           0x00000000        0x0 ../blockset/rtw/lib/HANcoder_Olimexino_STM32_F3_RTL.a(stm32f30x_rcc.obj)
 .text.RCC_DeInit
                0x00000000       0x54 ../blockset/rtw/lib/HANcoder_Olimexino_STM32_F3_RTL.a(stm32f30x_rcc.obj)
 .text.RCC_HSEConfig
                0x00000000       0x10 ../blockset/rtw/lib/HANcoder_Olimexino_STM32_F3_RTL.a(stm32f30x_rcc.obj)
 .text.RCC_WaitForHSEStartUp
                0x00000000       0x34 ../blockset/rtw/lib/HANcoder_Olimexino_STM32_F3_RTL.a(stm32f30x_rcc.obj)
 .text.RCC_AdjustHSICalibrationValue
                0x00000000       0x14 ../blockset/rtw/lib/HANcoder_Olimexino_STM32_F3_RTL.a(stm32f30x_rcc.obj)
 .text.RCC_HSICmd
                0x00000000        0xc ../blockset/rtw/lib/HANcoder_Olimexino_STM32_F3_RTL.a(stm32f30x_rcc.obj)
 .text.RCC_LSEConfig
                0x00000000       0x20 ../blockset/rtw/lib/HANcoder_Olimexino_STM32_F3_RTL.a(stm32f30x_rcc.obj)
 .text.RCC_LSEDriveConfig
                0x00000000       0x18 ../blockset/rtw/lib/HANcoder_Olimexino_STM32_F3_RTL.a(stm32f30x_rcc.obj)
 .text.RCC_LSICmd
                0x00000000        0xc ../blockset/rtw/lib/HANcoder_Olimexino_STM32_F3_RTL.a(stm32f30x_rcc.obj)
 .text.RCC_PLLConfig
                0x00000000       0x18 ../blockset/rtw/lib/HANcoder_Olimexino_STM32_F3_RTL.a(stm32f30x_rcc.obj)
 .text.RCC_PLLCmd
                0x00000000        0xc ../blockset/rtw/lib/HANcoder_Olimexino_STM32_F3_RTL.a(stm32f30x_rcc.obj)
 .text.RCC_PREDIV1Config
                0x00000000       0x14 ../blockset/rtw/lib/HANcoder_Olimexino_STM32_F3_RTL.a(stm32f30x_rcc.obj)
 .text.RCC_ClockSecuritySystemCmd
                0x00000000        0xc ../blockset/rtw/lib/HANcoder_Olimexino_STM32_F3_RTL.a(stm32f30x_rcc.obj)
 .text.RCC_MCOConfig
                0x00000000        0xc ../blockset/rtw/lib/HANcoder_Olimexino_STM32_F3_RTL.a(stm32f30x_rcc.obj)
 .text.RCC_SYSCLKConfig
                0x00000000       0x14 ../blockset/rtw/lib/HANcoder_Olimexino_STM32_F3_RTL.a(stm32f30x_rcc.obj)
 .text.RCC_GetSYSCLKSource
                0x00000000       0x10 ../blockset/rtw/lib/HANcoder_Olimexino_STM32_F3_RTL.a(stm32f30x_rcc.obj)
 .text.RCC_HCLKConfig
                0x00000000       0x14 ../blockset/rtw/lib/HANcoder_Olimexino_STM32_F3_RTL.a(stm32f30x_rcc.obj)
 .text.RCC_PCLK1Config
                0x00000000       0x14 ../blockset/rtw/lib/HANcoder_Olimexino_STM32_F3_RTL.a(stm32f30x_rcc.obj)
 .text.RCC_PCLK2Config
                0x00000000       0x14 ../blockset/rtw/lib/HANcoder_Olimexino_STM32_F3_RTL.a(stm32f30x_rcc.obj)
 .text.RCC_GetClocksFreq
                0x00000000      0x29c ../blockset/rtw/lib/HANcoder_Olimexino_STM32_F3_RTL.a(stm32f30x_rcc.obj)
 .text.RCC_ADCCLKConfig
                0x00000000       0x20 ../blockset/rtw/lib/HANcoder_Olimexino_STM32_F3_RTL.a(stm32f30x_rcc.obj)
 .text.RCC_I2CCLKConfig
                0x00000000       0x20 ../blockset/rtw/lib/HANcoder_Olimexino_STM32_F3_RTL.a(stm32f30x_rcc.obj)
 .text.RCC_TIMCLKConfig
                0x00000000       0x20 ../blockset/rtw/lib/HANcoder_Olimexino_STM32_F3_RTL.a(stm32f30x_rcc.obj)
 .text.RCC_USARTCLKConfig
                0x00000000       0x5c ../blockset/rtw/lib/HANcoder_Olimexino_STM32_F3_RTL.a(stm32f30x_rcc.obj)
 .text.RCC_RTCCLKConfig
                0x00000000       0x10 ../blockset/rtw/lib/HANcoder_Olimexino_STM32_F3_RTL.a(stm32f30x_rcc.obj)
 .text.RCC_I2SCLKConfig
                0x00000000        0xc ../blockset/rtw/lib/HANcoder_Olimexino_STM32_F3_RTL.a(stm32f30x_rcc.obj)
 .text.RCC_RTCCLKCmd
                0x00000000        0xc ../blockset/rtw/lib/HANcoder_Olimexino_STM32_F3_RTL.a(stm32f30x_rcc.obj)
 .text.RCC_BackupResetCmd
                0x00000000        0xc ../blockset/rtw/lib/HANcoder_Olimexino_STM32_F3_RTL.a(stm32f30x_rcc.obj)
 .text.RCC_APB2PeriphResetCmd
                0x00000000       0x1c ../blockset/rtw/lib/HANcoder_Olimexino_STM32_F3_RTL.a(stm32f30x_rcc.obj)
 .text.RCC_ITConfig
                0x00000000       0x1c ../blockset/rtw/lib/HANcoder_Olimexino_STM32_F3_RTL.a(stm32f30x_rcc.obj)
 .text.RCC_GetFlagStatus
                0x00000000       0x48 ../blockset/rtw/lib/HANcoder_Olimexino_STM32_F3_RTL.a(stm32f30x_rcc.obj)
 .text.RCC_ClearFlag
                0x00000000       0x10 ../blockset/rtw/lib/HANcoder_Olimexino_STM32_F3_RTL.a(stm32f30x_rcc.obj)
 .text.RCC_GetITStatus
                0x00000000       0x14 ../blockset/rtw/lib/HANcoder_Olimexino_STM32_F3_RTL.a(stm32f30x_rcc.obj)
 .text.RCC_ClearITPendingBit
                0x00000000        0xc ../blockset/rtw/lib/HANcoder_Olimexino_STM32_F3_RTL.a(stm32f30x_rcc.obj)
 .data.ADCPrescTable
                0x00000000       0x1a ../blockset/rtw/lib/HANcoder_Olimexino_STM32_F3_RTL.a(stm32f30x_rcc.obj)
 .data.APBAHBPrescTable
                0x00000000       0x10 ../blockset/rtw/lib/HANcoder_Olimexino_STM32_F3_RTL.a(stm32f30x_rcc.obj)
 .text          0x00000000        0x0 ../blockset/rtw/lib/HANcoder_Olimexino_STM32_F3_RTL.a(vectors.obj)
 .data          0x00000000        0x0 ../blockset/rtw/lib/HANcoder_Olimexino_STM32_F3_RTL.a(vectors.obj)
 .bss           0x00000000        0x0 ../blockset/rtw/lib/HANcoder_Olimexino_STM32_F3_RTL.a(vectors.obj)
 .text          0x00000000        0x0 ../blockset/rtw/lib/HANcoder_Olimexino_STM32_F3_RTL.a(quadencoder.obj)
 .data          0x00000000        0x0 ../blockset/rtw/lib/HANcoder_Olimexino_STM32_F3_RTL.a(quadencoder.obj)
 .bss           0x00000000        0x0 ../blockset/rtw/lib/HANcoder_Olimexino_STM32_F3_RTL.a(quadencoder.obj)
 .text.QuadEncConfigure
                0x00000000       0xf4 ../blockset/rtw/lib/HANcoder_Olimexino_STM32_F3_RTL.a(quadencoder.obj)
 .text.QuadEncGetCounter
                0x00000000       0x20 ../blockset/rtw/lib/HANcoder_Olimexino_STM32_F3_RTL.a(quadencoder.obj)
 .text.QuadEncResetCounter
                0x00000000       0x24 ../blockset/rtw/lib/HANcoder_Olimexino_STM32_F3_RTL.a(quadencoder.obj)
 .text          0x00000000        0x0 ../blockset/rtw/lib/HANcoder_Olimexino_STM32_F3_RTL.a(errorcodes.obj)
 .data          0x00000000        0x0 ../blockset/rtw/lib/HANcoder_Olimexino_STM32_F3_RTL.a(errorcodes.obj)
 .bss           0x00000000        0x0 ../blockset/rtw/lib/HANcoder_Olimexino_STM32_F3_RTL.a(errorcodes.obj)
 .text.ErrCodesDelSingleActiveError
                0x00000000       0xa4 ../blockset/rtw/lib/HANcoder_Olimexino_STM32_F3_RTL.a(errorcodes.obj)
 .text.ErrCodesDelSavedErrors
                0x00000000       0x1c ../blockset/rtw/lib/HANcoder_Olimexino_STM32_F3_RTL.a(errorcodes.obj)
 .text.ErrCodesDelActiveErrors
                0x00000000       0x28 ../blockset/rtw/lib/HANcoder_Olimexino_STM32_F3_RTL.a(errorcodes.obj)
 .text.ErrCodesDelActiveError
                0x00000000       0x24 ../blockset/rtw/lib/HANcoder_Olimexino_STM32_F3_RTL.a(errorcodes.obj)
 .text.ErrCodesGetNumSavedErrors
                0x00000000       0x10 ../blockset/rtw/lib/HANcoder_Olimexino_STM32_F3_RTL.a(errorcodes.obj)
 .text.ErrCodesGetNumActiveErrors
                0x00000000       0x10 ../blockset/rtw/lib/HANcoder_Olimexino_STM32_F3_RTL.a(errorcodes.obj)
 .text.ErrCodesGetSavedErrors
                0x00000000       0x68 ../blockset/rtw/lib/HANcoder_Olimexino_STM32_F3_RTL.a(errorcodes.obj)
 .text.ErrCodesGetActiveErrors
                0x00000000       0x80 ../blockset/rtw/lib/HANcoder_Olimexino_STM32_F3_RTL.a(errorcodes.obj)
 .text.ErrCodesTestError
                0x00000000       0x34 ../blockset/rtw/lib/HANcoder_Olimexino_STM32_F3_RTL.a(errorcodes.obj)
 .text.ErrCodesSearchSavedError
                0x00000000       0x60 ../blockset/rtw/lib/HANcoder_Olimexino_STM32_F3_RTL.a(errorcodes.obj)
 .text.ErrCodesSearchActiveError
                0x00000000       0x6c ../blockset/rtw/lib/HANcoder_Olimexino_STM32_F3_RTL.a(errorcodes.obj)
 .text          0x00000000        0x0 ../blockset/rtw/lib/HANcoder_Olimexino_STM32_F3_RTL.a(eeprom.obj)
 .data          0x00000000        0x0 ../blockset/rtw/lib/HANcoder_Olimexino_STM32_F3_RTL.a(eeprom.obj)
 .bss           0x00000000        0x0 ../blockset/rtw/lib/HANcoder_Olimexino_STM32_F3_RTL.a(eeprom.obj)
 .text.EepromWrite
                0x00000000        0x8 ../blockset/rtw/lib/HANcoder_Olimexino_STM32_F3_RTL.a(eeprom.obj)
 .text.EepromRead
                0x00000000        0x8 ../blockset/rtw/lib/HANcoder_Olimexino_STM32_F3_RTL.a(eeprom.obj)
 .text.EepromErase
                0x00000000        0xc ../blockset/rtw/lib/HANcoder_Olimexino_STM32_F3_RTL.a(eeprom.obj)
 .text.EepromSave
                0x00000000        0x4 ../blockset/rtw/lib/HANcoder_Olimexino_STM32_F3_RTL.a(eeprom.obj)
 .text          0x00000000        0x0 ../blockset/rtw/lib/HANcoder_Olimexino_STM32_F3_RTL.a(reset.obj)
 .data          0x00000000        0x0 ../blockset/rtw/lib/HANcoder_Olimexino_STM32_F3_RTL.a(reset.obj)
 .bss           0x00000000        0x0 ../blockset/rtw/lib/HANcoder_Olimexino_STM32_F3_RTL.a(reset.obj)
 .text          0x00000000        0x0 ../blockset/rtw/lib/HANcoder_Olimexino_STM32_F3_RTL.a(eeprom_sim.obj)
 .data          0x00000000        0x0 ../blockset/rtw/lib/HANcoder_Olimexino_STM32_F3_RTL.a(eeprom_sim.obj)
 .bss           0x00000000        0x0 ../blockset/rtw/lib/HANcoder_Olimexino_STM32_F3_RTL.a(eeprom_sim.obj)
 .text.EepromSimSynchronize
                0x00000000       0x90 ../blockset/rtw/lib/HANcoder_Olimexino_STM32_F3_RTL.a(eeprom_sim.obj)
 .text.EepromSimBulkErase
                0x00000000       0x34 ../blockset/rtw/lib/HANcoder_Olimexino_STM32_F3_RTL.a(eeprom_sim.obj)
 .text.EepromSimGetPtr
                0x00000000       0x14 ../blockset/rtw/lib/HANcoder_Olimexino_STM32_F3_RTL.a(eeprom_sim.obj)
 .text.EepromSimErase
                0x00000000       0x50 ../blockset/rtw/lib/HANcoder_Olimexino_STM32_F3_RTL.a(eeprom_sim.obj)
 .text.EepromSimUINT8Get
                0x00000000       0x24 ../blockset/rtw/lib/HANcoder_Olimexino_STM32_F3_RTL.a(eeprom_sim.obj)
 .text.EepromSimSINT8Get
                0x00000000       0x24 ../blockset/rtw/lib/HANcoder_Olimexino_STM32_F3_RTL.a(eeprom_sim.obj)
 .text.EepromSimUINT16Get
                0x00000000       0x24 ../blockset/rtw/lib/HANcoder_Olimexino_STM32_F3_RTL.a(eeprom_sim.obj)
 .text.EepromSimSINT16Get
                0x00000000       0x24 ../blockset/rtw/lib/HANcoder_Olimexino_STM32_F3_RTL.a(eeprom_sim.obj)
 .text.EepromSimSINT32Get
                0x00000000       0x24 ../blockset/rtw/lib/HANcoder_Olimexino_STM32_F3_RTL.a(eeprom_sim.obj)
 .text.EepromSimUINT8Set
                0x00000000       0x38 ../blockset/rtw/lib/HANcoder_Olimexino_STM32_F3_RTL.a(eeprom_sim.obj)
 .text.EepromSimSINT8Set
                0x00000000       0x38 ../blockset/rtw/lib/HANcoder_Olimexino_STM32_F3_RTL.a(eeprom_sim.obj)
 .text.EepromSimUINT16Set
                0x00000000       0x38 ../blockset/rtw/lib/HANcoder_Olimexino_STM32_F3_RTL.a(eeprom_sim.obj)
 .text.EepromSimSINT16Set
                0x00000000       0x38 ../blockset/rtw/lib/HANcoder_Olimexino_STM32_F3_RTL.a(eeprom_sim.obj)
 .text.EepromSimSINT32Set
                0x00000000       0x38 ../blockset/rtw/lib/HANcoder_Olimexino_STM32_F3_RTL.a(eeprom_sim.obj)
 .text          0x00000000        0x0 ../blockset/rtw/lib/HANcoder_Olimexino_STM32_F3_RTL.a(pwmout.obj)
 .data          0x00000000        0x0 ../blockset/rtw/lib/HANcoder_Olimexino_STM32_F3_RTL.a(pwmout.obj)
 .bss           0x00000000        0x0 ../blockset/rtw/lib/HANcoder_Olimexino_STM32_F3_RTL.a(pwmout.obj)
 .text.PwmoutSetFrequency
                0x00000000       0x3c ../blockset/rtw/lib/HANcoder_Olimexino_STM32_F3_RTL.a(pwmout.obj)
 .text          0x00000000        0x0 ../blockset/rtw/lib/HANcoder_Olimexino_STM32_F3_RTL.a(timein.obj)
 .data          0x00000000        0x0 ../blockset/rtw/lib/HANcoder_Olimexino_STM32_F3_RTL.a(timein.obj)
 .bss           0x00000000        0x0 ../blockset/rtw/lib/HANcoder_Olimexino_STM32_F3_RTL.a(timein.obj)
 .text.TimeinConfigure
                0x00000000      0x2f4 ../blockset/rtw/lib/HANcoder_Olimexino_STM32_F3_RTL.a(timein.obj)
 .text.TimeinConfigureZeroHzTimeout
                0x00000000       0x54 ../blockset/rtw/lib/HANcoder_Olimexino_STM32_F3_RTL.a(timein.obj)
 .text.TimeinRegisterEdgeDetectedCallback
                0x00000000       0x34 ../blockset/rtw/lib/HANcoder_Olimexino_STM32_F3_RTL.a(timein.obj)
 .text.TimeinGetFrequency
                0x00000000       0x34 ../blockset/rtw/lib/HANcoder_Olimexino_STM32_F3_RTL.a(timein.obj)
 .text.TimeinGetDutyCycle
                0x00000000       0x34 ../blockset/rtw/lib/HANcoder_Olimexino_STM32_F3_RTL.a(timein.obj)
 .text.TimeinGetLastEdgeCount
                0x00000000       0x20 ../blockset/rtw/lib/HANcoder_Olimexino_STM32_F3_RTL.a(timein.obj)
 .text.TimeinGetLastEdgeState
                0x00000000       0x1c ../blockset/rtw/lib/HANcoder_Olimexino_STM32_F3_RTL.a(timein.obj)
 .text.TimeinGetFreeRunningCounter
                0x00000000       0x44 ../blockset/rtw/lib/HANcoder_Olimexino_STM32_F3_RTL.a(timein.obj)
 .text.TimeinGetEdgeCounter
                0x00000000       0x20 ../blockset/rtw/lib/HANcoder_Olimexino_STM32_F3_RTL.a(timein.obj)
 .text.TimeinIsZeroHzDetected
                0x00000000       0x1c ../blockset/rtw/lib/HANcoder_Olimexino_STM32_F3_RTL.a(timein.obj)
 .text          0x00000000        0x0 ../blockset/rtw/lib/HANcoder_Olimexino_STM32_F3_RTL.a(usbcom.obj)
 .data          0x00000000        0x0 ../blockset/rtw/lib/HANcoder_Olimexino_STM32_F3_RTL.a(usbcom.obj)
 .bss           0x00000000        0x0 ../blockset/rtw/lib/HANcoder_Olimexino_STM32_F3_RTL.a(usbcom.obj)
 .text.UsbComEnterLowPowerMode
                0x00000000        0xc ../blockset/rtw/lib/HANcoder_Olimexino_STM32_F3_RTL.a(usbcom.obj)
 .text.UsbComLeaveLowPowerMode
                0x00000000       0x20 ../blockset/rtw/lib/HANcoder_Olimexino_STM32_F3_RTL.a(usbcom.obj)
 .text          0x00000000        0x0 ../blockset/rtw/lib/HANcoder_Olimexino_STM32_F3_RTL.a(usb_pwr.obj)
 .data          0x00000000        0x0 ../blockset/rtw/lib/HANcoder_Olimexino_STM32_F3_RTL.a(usb_pwr.obj)
 .bss           0x00000000        0x0 ../blockset/rtw/lib/HANcoder_Olimexino_STM32_F3_RTL.a(usb_pwr.obj)
 .text.PowerOff
                0x00000000       0x24 ../blockset/rtw/lib/HANcoder_Olimexino_STM32_F3_RTL.a(usb_pwr.obj)
 .text.Suspend  0x00000000       0x20 ../blockset/rtw/lib/HANcoder_Olimexino_STM32_F3_RTL.a(usb_pwr.obj)
 .text.Resume_Init
                0x00000000       0x20 ../blockset/rtw/lib/HANcoder_Olimexino_STM32_F3_RTL.a(usb_pwr.obj)
 .text.Resume   0x00000000       0xb8 ../blockset/rtw/lib/HANcoder_Olimexino_STM32_F3_RTL.a(usb_pwr.obj)
 .data.fSuspendEnabled
                0x00000000        0x1 ../blockset/rtw/lib/HANcoder_Olimexino_STM32_F3_RTL.a(usb_pwr.obj)
 COMMON         0x00000000        0x2 ../blockset/rtw/lib/HANcoder_Olimexino_STM32_F3_RTL.a(usb_pwr.obj)
 .text          0x00000000        0x0 ../blockset/rtw/lib/HANcoder_Olimexino_STM32_F3_RTL.a(stackOverflowHook.obj)
 .data          0x00000000        0x0 ../blockset/rtw/lib/HANcoder_Olimexino_STM32_F3_RTL.a(stackOverflowHook.obj)
 .bss           0x00000000        0x0 ../blockset/rtw/lib/HANcoder_Olimexino_STM32_F3_RTL.a(stackOverflowHook.obj)
 .text          0x00000000        0x0 ../blockset/rtw/lib/HANcoder_Olimexino_STM32_F3_RTL.a(mac.obj)
 .data          0x00000000        0x0 ../blockset/rtw/lib/HANcoder_Olimexino_STM32_F3_RTL.a(mac.obj)
 .bss           0x00000000        0x0 ../blockset/rtw/lib/HANcoder_Olimexino_STM32_F3_RTL.a(mac.obj)
 .text.MacCroMsgReceived
                0x00000000        0xc ../blockset/rtw/lib/HANcoder_Olimexino_STM32_F3_RTL.a(mac.obj)
 .text.MacUartCallbackDataReceived
                0x00000000        0x4 ../blockset/rtw/lib/HANcoder_Olimexino_STM32_F3_RTL.a(mac.obj)
 .text.MacCanInit
                0x00000000       0x28 ../blockset/rtw/lib/HANcoder_Olimexino_STM32_F3_RTL.a(mac.obj)
 .text.MacUartInit
                0x00000000       0x38 ../blockset/rtw/lib/HANcoder_Olimexino_STM32_F3_RTL.a(mac.obj)
 .text          0x00000000        0x0 ../blockset/rtw/lib/HANcoder_Olimexino_STM32_F3_RTL.a(uart.obj)
 .data          0x00000000        0x0 ../blockset/rtw/lib/HANcoder_Olimexino_STM32_F3_RTL.a(uart.obj)
 .bss           0x00000000        0x0 ../blockset/rtw/lib/HANcoder_Olimexino_STM32_F3_RTL.a(uart.obj)
 .text.UartInit
                0x00000000      0x1a4 ../blockset/rtw/lib/HANcoder_Olimexino_STM32_F3_RTL.a(uart.obj)
 .text.UartPutString
                0x00000000       0x50 ../blockset/rtw/lib/HANcoder_Olimexino_STM32_F3_RTL.a(uart.obj)
 .text.UartGetByte
                0x00000000       0x38 ../blockset/rtw/lib/HANcoder_Olimexino_STM32_F3_RTL.a(uart.obj)
 .text.UartGetNumReceivedBytes
                0x00000000       0x28 ../blockset/rtw/lib/HANcoder_Olimexino_STM32_F3_RTL.a(uart.obj)
 .text.UartRegisterDataReceivedCallback
                0x00000000        0xc ../blockset/rtw/lib/HANcoder_Olimexino_STM32_F3_RTL.a(uart.obj)
 .text          0x00000000        0x0 ../blockset/rtw/lib/HANcoder_Olimexino_STM32_F3_RTL.a(timeout.obj)
 .data          0x00000000        0x0 ../blockset/rtw/lib/HANcoder_Olimexino_STM32_F3_RTL.a(timeout.obj)
 .bss           0x00000000        0x0 ../blockset/rtw/lib/HANcoder_Olimexino_STM32_F3_RTL.a(timeout.obj)
 .text.TimeoutInitModule
                0x00000000      0x144 ../blockset/rtw/lib/HANcoder_Olimexino_STM32_F3_RTL.a(timeout.obj)
 .text.TimeoutScheduleCompareEvent
                0x00000000      0x174 ../blockset/rtw/lib/HANcoder_Olimexino_STM32_F3_RTL.a(timeout.obj)
 .text.TimeoutGetFreeRunningCounter
                0x00000000       0x44 ../blockset/rtw/lib/HANcoder_Olimexino_STM32_F3_RTL.a(timeout.obj)
 .text.TimeoutResetFreeRunningCounter
                0x00000000       0x44 ../blockset/rtw/lib/HANcoder_Olimexino_STM32_F3_RTL.a(timeout.obj)
 .text.TimeoutGetLastEventCounter
                0x00000000       0x38 ../blockset/rtw/lib/HANcoder_Olimexino_STM32_F3_RTL.a(timeout.obj)
 .text.TimeoutRegisterOverflowCallback
                0x00000000       0x24 ../blockset/rtw/lib/HANcoder_Olimexino_STM32_F3_RTL.a(timeout.obj)
 .text.TimeoutRegisterCompareEventCallback
                0x00000000       0x38 ../blockset/rtw/lib/HANcoder_Olimexino_STM32_F3_RTL.a(timeout.obj)
 .text          0x00000000        0x0 ../blockset/rtw/lib/HANcoder_Olimexino_STM32_F3_RTL.a(cstart.obj)
 .data          0x00000000        0x0 ../blockset/rtw/lib/HANcoder_Olimexino_STM32_F3_RTL.a(cstart.obj)
 .bss           0x00000000        0x0 ../blockset/rtw/lib/HANcoder_Olimexino_STM32_F3_RTL.a(cstart.obj)
 .text          0x00000000        0x0 ../blockset/rtw/lib/HANcoder_Olimexino_STM32_F3_RTL.a(list.obj)
 .data          0x00000000        0x0 ../blockset/rtw/lib/HANcoder_Olimexino_STM32_F3_RTL.a(list.obj)
 .bss           0x00000000        0x0 ../blockset/rtw/lib/HANcoder_Olimexino_STM32_F3_RTL.a(list.obj)
 .text          0x00000000        0x0 ../blockset/rtw/lib/HANcoder_Olimexino_STM32_F3_RTL.a(system_stm32f30x.obj)
 .data          0x00000000        0x0 ../blockset/rtw/lib/HANcoder_Olimexino_STM32_F3_RTL.a(system_stm32f30x.obj)
 .bss           0x00000000        0x0 ../blockset/rtw/lib/HANcoder_Olimexino_STM32_F3_RTL.a(system_stm32f30x.obj)
 .text.SystemCoreClockUpdate
                0x00000000       0x60 ../blockset/rtw/lib/HANcoder_Olimexino_STM32_F3_RTL.a(system_stm32f30x.obj)
 .data.AHBPrescTable
                0x00000000       0x10 ../blockset/rtw/lib/HANcoder_Olimexino_STM32_F3_RTL.a(system_stm32f30x.obj)
 .text          0x00000000        0x0 ../blockset/rtw/lib/HANcoder_Olimexino_STM32_F3_RTL.a(stm32f30x_flash.obj)
 .data          0x00000000        0x0 ../blockset/rtw/lib/HANcoder_Olimexino_STM32_F3_RTL.a(stm32f30x_flash.obj)
 .bss           0x00000000        0x0 ../blockset/rtw/lib/HANcoder_Olimexino_STM32_F3_RTL.a(stm32f30x_flash.obj)
 .text.FLASH_SetLatency
                0x00000000       0x14 ../blockset/rtw/lib/HANcoder_Olimexino_STM32_F3_RTL.a(stm32f30x_flash.obj)
 .text.FLASH_HalfCycleAccessCmd
                0x00000000       0x1c ../blockset/rtw/lib/HANcoder_Olimexino_STM32_F3_RTL.a(stm32f30x_flash.obj)
 .text.FLASH_PrefetchBufferCmd
                0x00000000       0x1c ../blockset/rtw/lib/HANcoder_Olimexino_STM32_F3_RTL.a(stm32f30x_flash.obj)
 .text.FLASH_Unlock
                0x00000000       0x20 ../blockset/rtw/lib/HANcoder_Olimexino_STM32_F3_RTL.a(stm32f30x_flash.obj)
 .text.FLASH_Lock
                0x00000000       0x10 ../blockset/rtw/lib/HANcoder_Olimexino_STM32_F3_RTL.a(stm32f30x_flash.obj)
 .text.FLASH_OB_Unlock
                0x00000000       0x20 ../blockset/rtw/lib/HANcoder_Olimexino_STM32_F3_RTL.a(stm32f30x_flash.obj)
 .text.FLASH_OB_Lock
                0x00000000       0x10 ../blockset/rtw/lib/HANcoder_Olimexino_STM32_F3_RTL.a(stm32f30x_flash.obj)
 .text.FLASH_OB_Launch
                0x00000000       0x10 ../blockset/rtw/lib/HANcoder_Olimexino_STM32_F3_RTL.a(stm32f30x_flash.obj)
 .text.FLASH_OB_GetUser
                0x00000000       0x10 ../blockset/rtw/lib/HANcoder_Olimexino_STM32_F3_RTL.a(stm32f30x_flash.obj)
 .text.FLASH_OB_GetWRP
                0x00000000        0xc ../blockset/rtw/lib/HANcoder_Olimexino_STM32_F3_RTL.a(stm32f30x_flash.obj)
 .text.FLASH_OB_GetRDP
                0x00000000       0x14 ../blockset/rtw/lib/HANcoder_Olimexino_STM32_F3_RTL.a(stm32f30x_flash.obj)
 .text.FLASH_ITConfig
                0x00000000       0x1c ../blockset/rtw/lib/HANcoder_Olimexino_STM32_F3_RTL.a(stm32f30x_flash.obj)
 .text.FLASH_GetFlagStatus
                0x00000000       0x14 ../blockset/rtw/lib/HANcoder_Olimexino_STM32_F3_RTL.a(stm32f30x_flash.obj)
 .text.FLASH_ClearFlag
                0x00000000        0xc ../blockset/rtw/lib/HANcoder_Olimexino_STM32_F3_RTL.a(stm32f30x_flash.obj)
 .text.FLASH_GetStatus
                0x00000000       0x28 ../blockset/rtw/lib/HANcoder_Olimexino_STM32_F3_RTL.a(stm32f30x_flash.obj)
 .text.FLASH_WaitForLastOperation
                0x00000000       0x24 ../blockset/rtw/lib/HANcoder_Olimexino_STM32_F3_RTL.a(stm32f30x_flash.obj)
 .text.FLASH_ErasePage
                0x00000000       0x3c ../blockset/rtw/lib/HANcoder_Olimexino_STM32_F3_RTL.a(stm32f30x_flash.obj)
 .text.FLASH_EraseAllPages
                0x00000000       0x38 ../blockset/rtw/lib/HANcoder_Olimexino_STM32_F3_RTL.a(stm32f30x_flash.obj)
 .text.FLASH_ProgramWord
                0x00000000       0x64 ../blockset/rtw/lib/HANcoder_Olimexino_STM32_F3_RTL.a(stm32f30x_flash.obj)
 .text.FLASH_ProgramHalfWord
                0x00000000       0x38 ../blockset/rtw/lib/HANcoder_Olimexino_STM32_F3_RTL.a(stm32f30x_flash.obj)
 .text.FLASH_OB_Erase
                0x00000000       0x74 ../blockset/rtw/lib/HANcoder_Olimexino_STM32_F3_RTL.a(stm32f30x_flash.obj)
 .text.FLASH_OB_EnableWRP
                0x00000000       0x68 ../blockset/rtw/lib/HANcoder_Olimexino_STM32_F3_RTL.a(stm32f30x_flash.obj)
 .text.FLASH_OB_RDPConfig
                0x00000000       0x74 ../blockset/rtw/lib/HANcoder_Olimexino_STM32_F3_RTL.a(stm32f30x_flash.obj)
 .text.FLASH_OB_UserConfig
                0x00000000       0x5c ../blockset/rtw/lib/HANcoder_Olimexino_STM32_F3_RTL.a(stm32f30x_flash.obj)
 .text.FLASH_OB_BOOTConfig
                0x00000000       0x54 ../blockset/rtw/lib/HANcoder_Olimexino_STM32_F3_RTL.a(stm32f30x_flash.obj)
 .text.FLASH_OB_VDDAConfig
                0x00000000       0x54 ../blockset/rtw/lib/HANcoder_Olimexino_STM32_F3_RTL.a(stm32f30x_flash.obj)
 .text.FLASH_OB_SRAMParityConfig
                0x00000000       0x44 ../blockset/rtw/lib/HANcoder_Olimexino_STM32_F3_RTL.a(stm32f30x_flash.obj)
 .text.FLASH_OB_WriteUser
                0x00000000       0x54 ../blockset/rtw/lib/HANcoder_Olimexino_STM32_F3_RTL.a(stm32f30x_flash.obj)
 .text.FLASH_ProgramOptionByteData
                0x00000000       0x3c ../blockset/rtw/lib/HANcoder_Olimexino_STM32_F3_RTL.a(stm32f30x_flash.obj)
 .debug_info    0x00000000      0xaa8 ../blockset/rtw/lib/HANcoder_Olimexino_STM32_F3_RTL.a(stm32f30x_flash.obj)
 .debug_abbrev  0x00000000      0x250 ../blockset/rtw/lib/HANcoder_Olimexino_STM32_F3_RTL.a(stm32f30x_flash.obj)
 .debug_loc     0x00000000      0x7af ../blockset/rtw/lib/HANcoder_Olimexino_STM32_F3_RTL.a(stm32f30x_flash.obj)
 .debug_aranges
                0x00000000      0x100 ../blockset/rtw/lib/HANcoder_Olimexino_STM32_F3_RTL.a(stm32f30x_flash.obj)
 .debug_ranges  0x00000000       0xf0 ../blockset/rtw/lib/HANcoder_Olimexino_STM32_F3_RTL.a(stm32f30x_flash.obj)
 .debug_line    0x00000000      0x53e ../blockset/rtw/lib/HANcoder_Olimexino_STM32_F3_RTL.a(stm32f30x_flash.obj)
 .debug_str     0x00000000      0x659 ../blockset/rtw/lib/HANcoder_Olimexino_STM32_F3_RTL.a(stm32f30x_flash.obj)
 .comment       0x00000000       0x6f ../blockset/rtw/lib/HANcoder_Olimexino_STM32_F3_RTL.a(stm32f30x_flash.obj)
 .debug_frame   0x00000000      0x2cc ../blockset/rtw/lib/HANcoder_Olimexino_STM32_F3_RTL.a(stm32f30x_flash.obj)
 .text          0x00000000        0x0 ../blockset/rtw/lib/HANcoder_Olimexino_STM32_F3_RTL.a(stm32f30x_tim.obj)
 .data          0x00000000        0x0 ../blockset/rtw/lib/HANcoder_Olimexino_STM32_F3_RTL.a(stm32f30x_tim.obj)
 .bss           0x00000000        0x0 ../blockset/rtw/lib/HANcoder_Olimexino_STM32_F3_RTL.a(stm32f30x_tim.obj)
 .text.TIM_DeInit
                0x00000000      0x140 ../blockset/rtw/lib/HANcoder_Olimexino_STM32_F3_RTL.a(stm32f30x_tim.obj)
 .text.TIM_PrescalerConfig
                0x00000000        0x8 ../blockset/rtw/lib/HANcoder_Olimexino_STM32_F3_RTL.a(stm32f30x_tim.obj)
 .text.TIM_CounterModeConfig
                0x00000000       0x10 ../blockset/rtw/lib/HANcoder_Olimexino_STM32_F3_RTL.a(stm32f30x_tim.obj)
 .text.TIM_SetAutoreload
                0x00000000        0x4 ../blockset/rtw/lib/HANcoder_Olimexino_STM32_F3_RTL.a(stm32f30x_tim.obj)
 .text.TIM_GetPrescaler
                0x00000000        0x8 ../blockset/rtw/lib/HANcoder_Olimexino_STM32_F3_RTL.a(stm32f30x_tim.obj)
 .text.TIM_UpdateDisableConfig
                0x00000000       0x1c ../blockset/rtw/lib/HANcoder_Olimexino_STM32_F3_RTL.a(stm32f30x_tim.obj)
 .text.TIM_UpdateRequestConfig
                0x00000000       0x1c ../blockset/rtw/lib/HANcoder_Olimexino_STM32_F3_RTL.a(stm32f30x_tim.obj)
 .text.TIM_UIFRemap
                0x00000000       0x1c ../blockset/rtw/lib/HANcoder_Olimexino_STM32_F3_RTL.a(stm32f30x_tim.obj)
 .text.TIM_SelectOnePulseMode
                0x00000000       0x18 ../blockset/rtw/lib/HANcoder_Olimexino_STM32_F3_RTL.a(stm32f30x_tim.obj)
 .text.TIM_SetClockDivision
                0x00000000       0x18 ../blockset/rtw/lib/HANcoder_Olimexino_STM32_F3_RTL.a(stm32f30x_tim.obj)
 .text.TIM_OC5Init
                0x00000000       0x58 ../blockset/rtw/lib/HANcoder_Olimexino_STM32_F3_RTL.a(stm32f30x_tim.obj)
 .text.TIM_OC6Init
                0x00000000       0x54 ../blockset/rtw/lib/HANcoder_Olimexino_STM32_F3_RTL.a(stm32f30x_tim.obj)
 .text.TIM_SelectGC5C1
                0x00000000       0x14 ../blockset/rtw/lib/HANcoder_Olimexino_STM32_F3_RTL.a(stm32f30x_tim.obj)
 .text.TIM_SelectGC5C2
                0x00000000       0x14 ../blockset/rtw/lib/HANcoder_Olimexino_STM32_F3_RTL.a(stm32f30x_tim.obj)
 .text.TIM_SelectGC5C3
                0x00000000       0x14 ../blockset/rtw/lib/HANcoder_Olimexino_STM32_F3_RTL.a(stm32f30x_tim.obj)
 .text.TIM_SelectOCxM
                0x00000000       0x54 ../blockset/rtw/lib/HANcoder_Olimexino_STM32_F3_RTL.a(stm32f30x_tim.obj)
 .text.TIM_SetCompare1
                0x00000000        0x4 ../blockset/rtw/lib/HANcoder_Olimexino_STM32_F3_RTL.a(stm32f30x_tim.obj)
 .text.TIM_SetCompare2
                0x00000000        0x4 ../blockset/rtw/lib/HANcoder_Olimexino_STM32_F3_RTL.a(stm32f30x_tim.obj)
 .text.TIM_SetCompare3
                0x00000000        0x4 ../blockset/rtw/lib/HANcoder_Olimexino_STM32_F3_RTL.a(stm32f30x_tim.obj)
 .text.TIM_SetCompare4
                0x00000000        0x4 ../blockset/rtw/lib/HANcoder_Olimexino_STM32_F3_RTL.a(stm32f30x_tim.obj)
 .text.TIM_SetCompare5
                0x00000000        0x4 ../blockset/rtw/lib/HANcoder_Olimexino_STM32_F3_RTL.a(stm32f30x_tim.obj)
 .text.TIM_SetCompare6
                0x00000000        0x4 ../blockset/rtw/lib/HANcoder_Olimexino_STM32_F3_RTL.a(stm32f30x_tim.obj)
 .text.TIM_ForcedOC1Config
                0x00000000       0x10 ../blockset/rtw/lib/HANcoder_Olimexino_STM32_F3_RTL.a(stm32f30x_tim.obj)
 .text.TIM_ForcedOC2Config
                0x00000000       0x14 ../blockset/rtw/lib/HANcoder_Olimexino_STM32_F3_RTL.a(stm32f30x_tim.obj)
 .text.TIM_ForcedOC3Config
                0x00000000        0xc ../blockset/rtw/lib/HANcoder_Olimexino_STM32_F3_RTL.a(stm32f30x_tim.obj)
 .text.TIM_ForcedOC4Config
                0x00000000       0x10 ../blockset/rtw/lib/HANcoder_Olimexino_STM32_F3_RTL.a(stm32f30x_tim.obj)
 .text.TIM_ForcedOC5Config
                0x00000000        0xc ../blockset/rtw/lib/HANcoder_Olimexino_STM32_F3_RTL.a(stm32f30x_tim.obj)
 .text.TIM_ForcedOC6Config
                0x00000000       0x10 ../blockset/rtw/lib/HANcoder_Olimexino_STM32_F3_RTL.a(stm32f30x_tim.obj)
 .text.TIM_OC5PreloadConfig
                0x00000000        0xc ../blockset/rtw/lib/HANcoder_Olimexino_STM32_F3_RTL.a(stm32f30x_tim.obj)
 .text.TIM_OC6PreloadConfig
                0x00000000       0x10 ../blockset/rtw/lib/HANcoder_Olimexino_STM32_F3_RTL.a(stm32f30x_tim.obj)
 .text.TIM_OC1FastConfig
                0x00000000        0xc ../blockset/rtw/lib/HANcoder_Olimexino_STM32_F3_RTL.a(stm32f30x_tim.obj)
 .text.TIM_OC2FastConfig
                0x00000000       0x10 ../blockset/rtw/lib/HANcoder_Olimexino_STM32_F3_RTL.a(stm32f30x_tim.obj)
 .text.TIM_OC3FastConfig
                0x00000000        0xc ../blockset/rtw/lib/HANcoder_Olimexino_STM32_F3_RTL.a(stm32f30x_tim.obj)
 .text.TIM_OC4FastConfig
                0x00000000       0x10 ../blockset/rtw/lib/HANcoder_Olimexino_STM32_F3_RTL.a(stm32f30x_tim.obj)
 .text.TIM_ClearOC1Ref
                0x00000000        0xc ../blockset/rtw/lib/HANcoder_Olimexino_STM32_F3_RTL.a(stm32f30x_tim.obj)
 .text.TIM_ClearOC2Ref
                0x00000000       0x10 ../blockset/rtw/lib/HANcoder_Olimexino_STM32_F3_RTL.a(stm32f30x_tim.obj)
 .text.TIM_ClearOC3Ref
                0x00000000        0xc ../blockset/rtw/lib/HANcoder_Olimexino_STM32_F3_RTL.a(stm32f30x_tim.obj)
 .text.TIM_ClearOC4Ref
                0x00000000       0x10 ../blockset/rtw/lib/HANcoder_Olimexino_STM32_F3_RTL.a(stm32f30x_tim.obj)
 .text.TIM_ClearOC5Ref
                0x00000000        0xc ../blockset/rtw/lib/HANcoder_Olimexino_STM32_F3_RTL.a(stm32f30x_tim.obj)
 .text.TIM_ClearOC6Ref
                0x00000000       0x10 ../blockset/rtw/lib/HANcoder_Olimexino_STM32_F3_RTL.a(stm32f30x_tim.obj)
 .text.TIM_SelectOCREFClear
                0x00000000       0x14 ../blockset/rtw/lib/HANcoder_Olimexino_STM32_F3_RTL.a(stm32f30x_tim.obj)
 .text.TIM_OC1PolarityConfig
                0x00000000        0xc ../blockset/rtw/lib/HANcoder_Olimexino_STM32_F3_RTL.a(stm32f30x_tim.obj)
 .text.TIM_OC1NPolarityConfig
                0x00000000        0xc ../blockset/rtw/lib/HANcoder_Olimexino_STM32_F3_RTL.a(stm32f30x_tim.obj)
 .text.TIM_OC2PolarityConfig
                0x00000000       0x10 ../blockset/rtw/lib/HANcoder_Olimexino_STM32_F3_RTL.a(stm32f30x_tim.obj)
 .text.TIM_OC2NPolarityConfig
                0x00000000       0x10 ../blockset/rtw/lib/HANcoder_Olimexino_STM32_F3_RTL.a(stm32f30x_tim.obj)
 .text.TIM_OC3PolarityConfig
                0x00000000       0x10 ../blockset/rtw/lib/HANcoder_Olimexino_STM32_F3_RTL.a(stm32f30x_tim.obj)
 .text.TIM_OC3NPolarityConfig
                0x00000000       0x10 ../blockset/rtw/lib/HANcoder_Olimexino_STM32_F3_RTL.a(stm32f30x_tim.obj)
 .text.TIM_OC4PolarityConfig
                0x00000000       0x10 ../blockset/rtw/lib/HANcoder_Olimexino_STM32_F3_RTL.a(stm32f30x_tim.obj)
 .text.TIM_OC5PolarityConfig
                0x00000000       0x10 ../blockset/rtw/lib/HANcoder_Olimexino_STM32_F3_RTL.a(stm32f30x_tim.obj)
 .text.TIM_OC6PolarityConfig
                0x00000000       0x10 ../blockset/rtw/lib/HANcoder_Olimexino_STM32_F3_RTL.a(stm32f30x_tim.obj)
 .text.TIM_CCxCmd
                0x00000000       0x20 ../blockset/rtw/lib/HANcoder_Olimexino_STM32_F3_RTL.a(stm32f30x_tim.obj)
 .text.TIM_CCxNCmd
                0x00000000       0x20 ../blockset/rtw/lib/HANcoder_Olimexino_STM32_F3_RTL.a(stm32f30x_tim.obj)
 .text.TIM_ICInit
                0x00000000      0x12c ../blockset/rtw/lib/HANcoder_Olimexino_STM32_F3_RTL.a(stm32f30x_tim.obj)
 .text.TIM_ICStructInit
                0x00000000       0x10 ../blockset/rtw/lib/HANcoder_Olimexino_STM32_F3_RTL.a(stm32f30x_tim.obj)
 .text.TIM_PWMIConfig
                0x00000000      0x110 ../blockset/rtw/lib/HANcoder_Olimexino_STM32_F3_RTL.a(stm32f30x_tim.obj)
 .text.TIM_SetIC1Prescaler
                0x00000000       0x10 ../blockset/rtw/lib/HANcoder_Olimexino_STM32_F3_RTL.a(stm32f30x_tim.obj)
 .text.TIM_SetIC2Prescaler
                0x00000000       0x14 ../blockset/rtw/lib/HANcoder_Olimexino_STM32_F3_RTL.a(stm32f30x_tim.obj)
 .text.TIM_SetIC3Prescaler
                0x00000000       0x14 ../blockset/rtw/lib/HANcoder_Olimexino_STM32_F3_RTL.a(stm32f30x_tim.obj)
 .text.TIM_SetIC4Prescaler
                0x00000000       0x18 ../blockset/rtw/lib/HANcoder_Olimexino_STM32_F3_RTL.a(stm32f30x_tim.obj)
 .text.TIM_BDTRConfig
                0x00000000       0x28 ../blockset/rtw/lib/HANcoder_Olimexino_STM32_F3_RTL.a(stm32f30x_tim.obj)
 .text.TIM_Break1Config
                0x00000000       0x14 ../blockset/rtw/lib/HANcoder_Olimexino_STM32_F3_RTL.a(stm32f30x_tim.obj)
 .text.TIM_Break2Config
                0x00000000       0x14 ../blockset/rtw/lib/HANcoder_Olimexino_STM32_F3_RTL.a(stm32f30x_tim.obj)
 .text.TIM_Break1Cmd
                0x00000000       0x14 ../blockset/rtw/lib/HANcoder_Olimexino_STM32_F3_RTL.a(stm32f30x_tim.obj)
 .text.TIM_Break2Cmd
                0x00000000       0x14 ../blockset/rtw/lib/HANcoder_Olimexino_STM32_F3_RTL.a(stm32f30x_tim.obj)
 .text.TIM_BDTRStructInit
                0x00000000       0x14 ../blockset/rtw/lib/HANcoder_Olimexino_STM32_F3_RTL.a(stm32f30x_tim.obj)
 .text.TIM_SelectCOM
                0x00000000       0x18 ../blockset/rtw/lib/HANcoder_Olimexino_STM32_F3_RTL.a(stm32f30x_tim.obj)
 .text.TIM_CCPreloadControl
                0x00000000       0x18 ../blockset/rtw/lib/HANcoder_Olimexino_STM32_F3_RTL.a(stm32f30x_tim.obj)
 .text.TIM_GenerateEvent
                0x00000000        0x4 ../blockset/rtw/lib/HANcoder_Olimexino_STM32_F3_RTL.a(stm32f30x_tim.obj)
 .text.TIM_GetFlagStatus
                0x00000000        0xc ../blockset/rtw/lib/HANcoder_Olimexino_STM32_F3_RTL.a(stm32f30x_tim.obj)
 .text.TIM_ClearFlag
                0x00000000        0x8 ../blockset/rtw/lib/HANcoder_Olimexino_STM32_F3_RTL.a(stm32f30x_tim.obj)
 .text.TIM_ClearITPendingBit
                0x00000000        0x8 ../blockset/rtw/lib/HANcoder_Olimexino_STM32_F3_RTL.a(stm32f30x_tim.obj)
 .text.TIM_DMAConfig
                0x00000000        0x8 ../blockset/rtw/lib/HANcoder_Olimexino_STM32_F3_RTL.a(stm32f30x_tim.obj)
 .text.TIM_SelectCCDMA
                0x00000000       0x18 ../blockset/rtw/lib/HANcoder_Olimexino_STM32_F3_RTL.a(stm32f30x_tim.obj)
 .text.TIM_InternalClockConfig
                0x00000000        0xc ../blockset/rtw/lib/HANcoder_Olimexino_STM32_F3_RTL.a(stm32f30x_tim.obj)
 .text.TIM_ITRxExternalClockConfig
                0x00000000       0x18 ../blockset/rtw/lib/HANcoder_Olimexino_STM32_F3_RTL.a(stm32f30x_tim.obj)
 .text.TIM_TIxExternalClockConfig
                0x00000000       0x74 ../blockset/rtw/lib/HANcoder_Olimexino_STM32_F3_RTL.a(stm32f30x_tim.obj)
 .text.TIM_ETRClockMode1Config
                0x00000000       0x28 ../blockset/rtw/lib/HANcoder_Olimexino_STM32_F3_RTL.a(stm32f30x_tim.obj)
 .text.TIM_ETRClockMode2Config
                0x00000000       0x20 ../blockset/rtw/lib/HANcoder_Olimexino_STM32_F3_RTL.a(stm32f30x_tim.obj)
 .text.TIM_SelectInputTrigger
                0x00000000       0x10 ../blockset/rtw/lib/HANcoder_Olimexino_STM32_F3_RTL.a(stm32f30x_tim.obj)
 .text.TIM_SelectOutputTrigger
                0x00000000       0x14 ../blockset/rtw/lib/HANcoder_Olimexino_STM32_F3_RTL.a(stm32f30x_tim.obj)
 .text.TIM_SelectOutputTrigger2
                0x00000000       0x10 ../blockset/rtw/lib/HANcoder_Olimexino_STM32_F3_RTL.a(stm32f30x_tim.obj)
 .text.TIM_SelectSlaveMode
                0x00000000       0x14 ../blockset/rtw/lib/HANcoder_Olimexino_STM32_F3_RTL.a(stm32f30x_tim.obj)
 .text.TIM_SelectMasterSlaveMode
                0x00000000       0x14 ../blockset/rtw/lib/HANcoder_Olimexino_STM32_F3_RTL.a(stm32f30x_tim.obj)
 .text.TIM_ETRConfig
                0x00000000       0x18 ../blockset/rtw/lib/HANcoder_Olimexino_STM32_F3_RTL.a(stm32f30x_tim.obj)
 .text.TIM_EncoderInterfaceConfig
                0x00000000       0x38 ../blockset/rtw/lib/HANcoder_Olimexino_STM32_F3_RTL.a(stm32f30x_tim.obj)
 .text.TIM_SelectHallSensor
                0x00000000       0x18 ../blockset/rtw/lib/HANcoder_Olimexino_STM32_F3_RTL.a(stm32f30x_tim.obj)
 .text.TIM_RemapConfig
                0x00000000        0x8 ../blockset/rtw/lib/HANcoder_Olimexino_STM32_F3_RTL.a(stm32f30x_tim.obj)
 .text          0x00000000        0x0 ../blockset/rtw/lib/HANcoder_Olimexino_STM32_F3_RTL.a(stm32f30x_usart.obj)
 .data          0x00000000        0x0 ../blockset/rtw/lib/HANcoder_Olimexino_STM32_F3_RTL.a(stm32f30x_usart.obj)
 .bss           0x00000000        0x0 ../blockset/rtw/lib/HANcoder_Olimexino_STM32_F3_RTL.a(stm32f30x_usart.obj)
 .text.USART_DeInit
                0x00000000       0xb0 ../blockset/rtw/lib/HANcoder_Olimexino_STM32_F3_RTL.a(stm32f30x_usart.obj)
 .text.USART_Init
                0x00000000       0xbc ../blockset/rtw/lib/HANcoder_Olimexino_STM32_F3_RTL.a(stm32f30x_usart.obj)
 .text.USART_StructInit
                0x00000000       0x18 ../blockset/rtw/lib/HANcoder_Olimexino_STM32_F3_RTL.a(stm32f30x_usart.obj)
 .text.USART_ClockInit
                0x00000000       0x20 ../blockset/rtw/lib/HANcoder_Olimexino_STM32_F3_RTL.a(stm32f30x_usart.obj)
 .text.USART_ClockStructInit
                0x00000000        0xc ../blockset/rtw/lib/HANcoder_Olimexino_STM32_F3_RTL.a(stm32f30x_usart.obj)
 .text.USART_Cmd
                0x00000000       0x14 ../blockset/rtw/lib/HANcoder_Olimexino_STM32_F3_RTL.a(stm32f30x_usart.obj)
 .text.USART_DirectionModeCmd
                0x00000000       0x14 ../blockset/rtw/lib/HANcoder_Olimexino_STM32_F3_RTL.a(stm32f30x_usart.obj)
 .text.USART_OverSampling8Cmd
                0x00000000       0x14 ../blockset/rtw/lib/HANcoder_Olimexino_STM32_F3_RTL.a(stm32f30x_usart.obj)
 .text.USART_OneBitMethodCmd
                0x00000000       0x14 ../blockset/rtw/lib/HANcoder_Olimexino_STM32_F3_RTL.a(stm32f30x_usart.obj)
 .text.USART_MSBFirstCmd
                0x00000000       0x14 ../blockset/rtw/lib/HANcoder_Olimexino_STM32_F3_RTL.a(stm32f30x_usart.obj)
 .text.USART_DataInvCmd
                0x00000000       0x14 ../blockset/rtw/lib/HANcoder_Olimexino_STM32_F3_RTL.a(stm32f30x_usart.obj)
 .text.USART_InvPinCmd
                0x00000000       0x14 ../blockset/rtw/lib/HANcoder_Olimexino_STM32_F3_RTL.a(stm32f30x_usart.obj)
 .text.USART_SWAPPinCmd
                0x00000000       0x14 ../blockset/rtw/lib/HANcoder_Olimexino_STM32_F3_RTL.a(stm32f30x_usart.obj)
 .text.USART_ReceiverTimeOutCmd
                0x00000000       0x14 ../blockset/rtw/lib/HANcoder_Olimexino_STM32_F3_RTL.a(stm32f30x_usart.obj)
 .text.USART_SetReceiverTimeOut
                0x00000000       0x10 ../blockset/rtw/lib/HANcoder_Olimexino_STM32_F3_RTL.a(stm32f30x_usart.obj)
 .text.USART_SetPrescaler
                0x00000000       0x14 ../blockset/rtw/lib/HANcoder_Olimexino_STM32_F3_RTL.a(stm32f30x_usart.obj)
 .text.USART_STOPModeCmd
                0x00000000       0x14 ../blockset/rtw/lib/HANcoder_Olimexino_STM32_F3_RTL.a(stm32f30x_usart.obj)
 .text.USART_StopModeWakeUpSourceConfig
                0x00000000       0x10 ../blockset/rtw/lib/HANcoder_Olimexino_STM32_F3_RTL.a(stm32f30x_usart.obj)
 .text.USART_AutoBaudRateCmd
                0x00000000       0x14 ../blockset/rtw/lib/HANcoder_Olimexino_STM32_F3_RTL.a(stm32f30x_usart.obj)
 .text.USART_AutoBaudRateConfig
                0x00000000       0x10 ../blockset/rtw/lib/HANcoder_Olimexino_STM32_F3_RTL.a(stm32f30x_usart.obj)
 .text.USART_SetAddress
                0x00000000       0x14 ../blockset/rtw/lib/HANcoder_Olimexino_STM32_F3_RTL.a(stm32f30x_usart.obj)
 .text.USART_MuteModeCmd
                0x00000000       0x14 ../blockset/rtw/lib/HANcoder_Olimexino_STM32_F3_RTL.a(stm32f30x_usart.obj)
 .text.USART_MuteModeWakeUpConfig
                0x00000000       0x10 ../blockset/rtw/lib/HANcoder_Olimexino_STM32_F3_RTL.a(stm32f30x_usart.obj)
 .text.USART_AddressDetectionConfig
                0x00000000       0x10 ../blockset/rtw/lib/HANcoder_Olimexino_STM32_F3_RTL.a(stm32f30x_usart.obj)
 .text.USART_LINBreakDetectLengthConfig
                0x00000000       0x10 ../blockset/rtw/lib/HANcoder_Olimexino_STM32_F3_RTL.a(stm32f30x_usart.obj)
 .text.USART_LINCmd
                0x00000000       0x14 ../blockset/rtw/lib/HANcoder_Olimexino_STM32_F3_RTL.a(stm32f30x_usart.obj)
 .text.USART_HalfDuplexCmd
                0x00000000       0x14 ../blockset/rtw/lib/HANcoder_Olimexino_STM32_F3_RTL.a(stm32f30x_usart.obj)
 .text.USART_SetGuardTime
                0x00000000       0x14 ../blockset/rtw/lib/HANcoder_Olimexino_STM32_F3_RTL.a(stm32f30x_usart.obj)
 .text.USART_SmartCardCmd
                0x00000000       0x14 ../blockset/rtw/lib/HANcoder_Olimexino_STM32_F3_RTL.a(stm32f30x_usart.obj)
 .text.USART_SmartCardNACKCmd
                0x00000000       0x14 ../blockset/rtw/lib/HANcoder_Olimexino_STM32_F3_RTL.a(stm32f30x_usart.obj)
 .text.USART_SetAutoRetryCount
                0x00000000       0x14 ../blockset/rtw/lib/HANcoder_Olimexino_STM32_F3_RTL.a(stm32f30x_usart.obj)
 .text.USART_SetBlockLength
                0x00000000       0x14 ../blockset/rtw/lib/HANcoder_Olimexino_STM32_F3_RTL.a(stm32f30x_usart.obj)
 .text.USART_IrDAConfig
                0x00000000       0x10 ../blockset/rtw/lib/HANcoder_Olimexino_STM32_F3_RTL.a(stm32f30x_usart.obj)
 .text.USART_IrDACmd
                0x00000000       0x14 ../blockset/rtw/lib/HANcoder_Olimexino_STM32_F3_RTL.a(stm32f30x_usart.obj)
 .text.USART_DECmd
                0x00000000       0x14 ../blockset/rtw/lib/HANcoder_Olimexino_STM32_F3_RTL.a(stm32f30x_usart.obj)
 .text.USART_DEPolarityConfig
                0x00000000       0x10 ../blockset/rtw/lib/HANcoder_Olimexino_STM32_F3_RTL.a(stm32f30x_usart.obj)
 .text.USART_SetDEAssertionTime
                0x00000000       0x14 ../blockset/rtw/lib/HANcoder_Olimexino_STM32_F3_RTL.a(stm32f30x_usart.obj)
 .text.USART_SetDEDeassertionTime
                0x00000000       0x14 ../blockset/rtw/lib/HANcoder_Olimexino_STM32_F3_RTL.a(stm32f30x_usart.obj)
 .text.USART_DMACmd
                0x00000000       0x14 ../blockset/rtw/lib/HANcoder_Olimexino_STM32_F3_RTL.a(stm32f30x_usart.obj)
 .text.USART_DMAReceptionErrorConfig
                0x00000000       0x10 ../blockset/rtw/lib/HANcoder_Olimexino_STM32_F3_RTL.a(stm32f30x_usart.obj)
 .text.USART_RequestCmd
                0x00000000       0x18 ../blockset/rtw/lib/HANcoder_Olimexino_STM32_F3_RTL.a(stm32f30x_usart.obj)
 .text.USART_OverrunDetectionConfig
                0x00000000       0x10 ../blockset/rtw/lib/HANcoder_Olimexino_STM32_F3_RTL.a(stm32f30x_usart.obj)
 .text.USART_GetFlagStatus
                0x00000000        0xc ../blockset/rtw/lib/HANcoder_Olimexino_STM32_F3_RTL.a(stm32f30x_usart.obj)
 .text.USART_ClearFlag
                0x00000000        0x4 ../blockset/rtw/lib/HANcoder_Olimexino_STM32_F3_RTL.a(stm32f30x_usart.obj)
 .text.USART_ClearITPendingBit
                0x00000000        0xc ../blockset/rtw/lib/HANcoder_Olimexino_STM32_F3_RTL.a(stm32f30x_usart.obj)
 .text          0x00000000        0x0 ../blockset/rtw/lib/HANcoder_Olimexino_STM32_F3_RTL.a(usb_init.obj)
 .data          0x00000000        0x0 ../blockset/rtw/lib/HANcoder_Olimexino_STM32_F3_RTL.a(usb_init.obj)
 .bss           0x00000000        0x0 ../blockset/rtw/lib/HANcoder_Olimexino_STM32_F3_RTL.a(usb_init.obj)
 .text          0x00000000        0x0 ../blockset/rtw/lib/HANcoder_Olimexino_STM32_F3_RTL.a(usb_mem.obj)
 .data          0x00000000        0x0 ../blockset/rtw/lib/HANcoder_Olimexino_STM32_F3_RTL.a(usb_mem.obj)
 .bss           0x00000000        0x0 ../blockset/rtw/lib/HANcoder_Olimexino_STM32_F3_RTL.a(usb_mem.obj)
 .text          0x00000000        0x0 ../blockset/rtw/lib/HANcoder_Olimexino_STM32_F3_RTL.a(usb_regs.obj)
 .data          0x00000000        0x0 ../blockset/rtw/lib/HANcoder_Olimexino_STM32_F3_RTL.a(usb_regs.obj)
 .bss           0x00000000        0x0 ../blockset/rtw/lib/HANcoder_Olimexino_STM32_F3_RTL.a(usb_regs.obj)
 .text.SetCNTR  0x00000000        0xc ../blockset/rtw/lib/HANcoder_Olimexino_STM32_F3_RTL.a(usb_regs.obj)
 .text.GetCNTR  0x00000000        0xc ../blockset/rtw/lib/HANcoder_Olimexino_STM32_F3_RTL.a(usb_regs.obj)
 .text.SetISTR  0x00000000        0xc ../blockset/rtw/lib/HANcoder_Olimexino_STM32_F3_RTL.a(usb_regs.obj)
 .text.GetISTR  0x00000000        0xc ../blockset/rtw/lib/HANcoder_Olimexino_STM32_F3_RTL.a(usb_regs.obj)
 .text.GetFNR   0x00000000        0xc ../blockset/rtw/lib/HANcoder_Olimexino_STM32_F3_RTL.a(usb_regs.obj)
 .text.SetDADDR
                0x00000000        0xc ../blockset/rtw/lib/HANcoder_Olimexino_STM32_F3_RTL.a(usb_regs.obj)
 .text.GetDADDR
                0x00000000        0xc ../blockset/rtw/lib/HANcoder_Olimexino_STM32_F3_RTL.a(usb_regs.obj)
 .text.GetBTABLE
                0x00000000        0xc ../blockset/rtw/lib/HANcoder_Olimexino_STM32_F3_RTL.a(usb_regs.obj)
 .text.SetENDPOINT
                0x00000000       0x10 ../blockset/rtw/lib/HANcoder_Olimexino_STM32_F3_RTL.a(usb_regs.obj)
 .text.GetENDPOINT
                0x00000000       0x10 ../blockset/rtw/lib/HANcoder_Olimexino_STM32_F3_RTL.a(usb_regs.obj)
 .text.GetEPType
                0x00000000       0x14 ../blockset/rtw/lib/HANcoder_Olimexino_STM32_F3_RTL.a(usb_regs.obj)
 .text.SetDouBleBuffEPStall
                0x00000000       0x2c ../blockset/rtw/lib/HANcoder_Olimexino_STM32_F3_RTL.a(usb_regs.obj)
 .text.GetEPTxStatus
                0x00000000       0x14 ../blockset/rtw/lib/HANcoder_Olimexino_STM32_F3_RTL.a(usb_regs.obj)
 .text.GetEPRxStatus
                0x00000000       0x14 ../blockset/rtw/lib/HANcoder_Olimexino_STM32_F3_RTL.a(usb_regs.obj)
 .text.SetEPDoubleBuff
                0x00000000       0x20 ../blockset/rtw/lib/HANcoder_Olimexino_STM32_F3_RTL.a(usb_regs.obj)
 .text.Set_Status_Out
                0x00000000        0x4 ../blockset/rtw/lib/HANcoder_Olimexino_STM32_F3_RTL.a(usb_regs.obj)
 .text.SetEP_KIND
                0x00000000        0x4 ../blockset/rtw/lib/HANcoder_Olimexino_STM32_F3_RTL.a(usb_regs.obj)
 .text.ClearEP_KIND
                0x00000000        0x4 ../blockset/rtw/lib/HANcoder_Olimexino_STM32_F3_RTL.a(usb_regs.obj)
 .text.GetTxStallStatus
                0x00000000       0x1c ../blockset/rtw/lib/HANcoder_Olimexino_STM32_F3_RTL.a(usb_regs.obj)
 .text.GetRxStallStatus
                0x00000000       0x1c ../blockset/rtw/lib/HANcoder_Olimexino_STM32_F3_RTL.a(usb_regs.obj)
 .text.ClearEP_CTR_RX
                0x00000000       0x18 ../blockset/rtw/lib/HANcoder_Olimexino_STM32_F3_RTL.a(usb_regs.obj)
 .text.ClearEP_CTR_TX
                0x00000000       0x18 ../blockset/rtw/lib/HANcoder_Olimexino_STM32_F3_RTL.a(usb_regs.obj)
 .text.ToggleDTOG_RX
                0x00000000       0x20 ../blockset/rtw/lib/HANcoder_Olimexino_STM32_F3_RTL.a(usb_regs.obj)
 .text.ToggleDTOG_TX
                0x00000000       0x20 ../blockset/rtw/lib/HANcoder_Olimexino_STM32_F3_RTL.a(usb_regs.obj)
 .text.SetEPAddress
                0x00000000       0x20 ../blockset/rtw/lib/HANcoder_Olimexino_STM32_F3_RTL.a(usb_regs.obj)
 .text.GetEPAddress
                0x00000000       0x14 ../blockset/rtw/lib/HANcoder_Olimexino_STM32_F3_RTL.a(usb_regs.obj)
 .text.SetEPCountRxReg
                0x00000000       0x28 ../blockset/rtw/lib/HANcoder_Olimexino_STM32_F3_RTL.a(usb_regs.obj)
 .text.SetEPDblBuffAddr
                0x00000000       0x3c ../blockset/rtw/lib/HANcoder_Olimexino_STM32_F3_RTL.a(usb_regs.obj)
 .text.SetEPDblBuffCount
                0x00000000       0xc0 ../blockset/rtw/lib/HANcoder_Olimexino_STM32_F3_RTL.a(usb_regs.obj)
 .text.SetEPDblBuf0Count
                0x00000000       0x60 ../blockset/rtw/lib/HANcoder_Olimexino_STM32_F3_RTL.a(usb_regs.obj)
 .text.SetEPDblBuf1Count
                0x00000000       0x60 ../blockset/rtw/lib/HANcoder_Olimexino_STM32_F3_RTL.a(usb_regs.obj)
 .text.GetEPDblBuf0Count
                0x00000000       0x20 ../blockset/rtw/lib/HANcoder_Olimexino_STM32_F3_RTL.a(usb_regs.obj)
 .text.GetEPTxCount
                0x00000000        0x4 ../blockset/rtw/lib/HANcoder_Olimexino_STM32_F3_RTL.a(usb_regs.obj)
 .text.GetEPDblBufDir
                0x00000000       0x44 ../blockset/rtw/lib/HANcoder_Olimexino_STM32_F3_RTL.a(usb_regs.obj)
 .text.FreeUserBuffer
                0x00000000       0x48 ../blockset/rtw/lib/HANcoder_Olimexino_STM32_F3_RTL.a(usb_regs.obj)
 .text.ToWord   0x00000000        0x8 ../blockset/rtw/lib/HANcoder_Olimexino_STM32_F3_RTL.a(usb_regs.obj)
 .text          0x00000000        0x0 ../blockset/rtw/lib/HANcoder_Olimexino_STM32_F3_RTL.a(usb_desc.obj)
 .data          0x00000000        0x0 ../blockset/rtw/lib/HANcoder_Olimexino_STM32_F3_RTL.a(usb_desc.obj)
 .bss           0x00000000        0x0 ../blockset/rtw/lib/HANcoder_Olimexino_STM32_F3_RTL.a(usb_desc.obj)
 .text          0x00000000        0x0 ../blockset/rtw/lib/HANcoder_Olimexino_STM32_F3_RTL.a(usb_istr.obj)
 .data          0x00000000        0x0 ../blockset/rtw/lib/HANcoder_Olimexino_STM32_F3_RTL.a(usb_istr.obj)
 .bss           0x00000000        0x0 ../blockset/rtw/lib/HANcoder_Olimexino_STM32_F3_RTL.a(usb_istr.obj)
 .text          0x00000000        0x0 ../blockset/rtw/lib/HANcoder_Olimexino_STM32_F3_RTL.a(usb_prop.obj)
 .data          0x00000000        0x0 ../blockset/rtw/lib/HANcoder_Olimexino_STM32_F3_RTL.a(usb_prop.obj)
 .bss           0x00000000        0x0 ../blockset/rtw/lib/HANcoder_Olimexino_STM32_F3_RTL.a(usb_prop.obj)
 .text          0x00000000        0x0 ../blockset/rtw/lib/HANcoder_Olimexino_STM32_F3_RTL.a(usb_core.obj)
 .data          0x00000000        0x0 ../blockset/rtw/lib/HANcoder_Olimexino_STM32_F3_RTL.a(usb_core.obj)
 .bss           0x00000000        0x0 ../blockset/rtw/lib/HANcoder_Olimexino_STM32_F3_RTL.a(usb_core.obj)
 .text.Standard_SetDeviceFeature
                0x00000000       0x24 ../blockset/rtw/lib/HANcoder_Olimexino_STM32_F3_RTL.a(usb_core.obj)
 .text          0x00000000        0x0 ../blockset/rtw/lib/HANcoder_Olimexino_STM32_F3_RTL.a(usb_int.obj)
 .data          0x00000000        0x0 ../blockset/rtw/lib/HANcoder_Olimexino_STM32_F3_RTL.a(usb_int.obj)
 .bss           0x00000000        0x0 ../blockset/rtw/lib/HANcoder_Olimexino_STM32_F3_RTL.a(usb_int.obj)
 .text.CTR_HP   0x00000000       0x80 ../blockset/rtw/lib/HANcoder_Olimexino_STM32_F3_RTL.a(usb_int.obj)
 .text          0x00000000        0x0 ../blockset/rtw/lib/HANcoder_Olimexino_STM32_F3_RTL.a(usb_sil.obj)
 .data          0x00000000        0x0 ../blockset/rtw/lib/HANcoder_Olimexino_STM32_F3_RTL.a(usb_sil.obj)
 .bss           0x00000000        0x0 ../blockset/rtw/lib/HANcoder_Olimexino_STM32_F3_RTL.a(usb_sil.obj)
 .text.USB_SIL_Write
                0x00000000       0x28 ../blockset/rtw/lib/HANcoder_Olimexino_STM32_F3_RTL.a(usb_sil.obj)
 .text          0x00000000        0x0 ../blockset/rtw/lib/HANcoder_Olimexino_STM32_F3_RTL.a(usb_endp.obj)
 .data          0x00000000        0x0 ../blockset/rtw/lib/HANcoder_Olimexino_STM32_F3_RTL.a(usb_endp.obj)
 .bss           0x00000000        0x0 ../blockset/rtw/lib/HANcoder_Olimexino_STM32_F3_RTL.a(usb_endp.obj)
 .text          0x00000000        0x0 c:/program files (x86)/gnu arm embedded toolchain/10 2021.10/bin/../lib/gcc/arm-none-eabi/10.3.1/../../../../arm-none-eabi/lib/thumb/v7e-m+fp/softfp\libm.a(lib_a-s_floor.o)
 .data          0x00000000        0x0 c:/program files (x86)/gnu arm embedded toolchain/10 2021.10/bin/../lib/gcc/arm-none-eabi/10.3.1/../../../../arm-none-eabi/lib/thumb/v7e-m+fp/softfp\libm.a(lib_a-s_floor.o)
 .bss           0x00000000        0x0 c:/program files (x86)/gnu arm embedded toolchain/10 2021.10/bin/../lib/gcc/arm-none-eabi/10.3.1/../../../../arm-none-eabi/lib/thumb/v7e-m+fp/softfp\libm.a(lib_a-s_floor.o)
 .text          0x00000000      0x254 c:/program files (x86)/gnu arm embedded toolchain/10 2021.10/bin/../lib/gcc/arm-none-eabi/10.3.1/thumb/v7e-m+fp/softfp\libgcc.a(_arm_muldf3.o)
 .data          0x00000000        0x0 c:/program files (x86)/gnu arm embedded toolchain/10 2021.10/bin/../lib/gcc/arm-none-eabi/10.3.1/thumb/v7e-m+fp/softfp\libgcc.a(_arm_muldf3.o)
 .bss           0x00000000        0x0 c:/program files (x86)/gnu arm embedded toolchain/10 2021.10/bin/../lib/gcc/arm-none-eabi/10.3.1/thumb/v7e-m+fp/softfp\libgcc.a(_arm_muldf3.o)
 .debug_frame   0x00000000       0x30 c:/program files (x86)/gnu arm embedded toolchain/10 2021.10/bin/../lib/gcc/arm-none-eabi/10.3.1/thumb/v7e-m+fp/softfp\libgcc.a(_arm_muldf3.o)
 .data          0x00000000        0x0 c:/program files (x86)/gnu arm embedded toolchain/10 2021.10/bin/../lib/gcc/arm-none-eabi/10.3.1/thumb/v7e-m+fp/softfp\libgcc.a(_arm_addsubdf3.o)
 .bss           0x00000000        0x0 c:/program files (x86)/gnu arm embedded toolchain/10 2021.10/bin/../lib/gcc/arm-none-eabi/10.3.1/thumb/v7e-m+fp/softfp\libgcc.a(_arm_addsubdf3.o)
 .data          0x00000000        0x0 c:/program files (x86)/gnu arm embedded toolchain/10 2021.10/bin/../lib/gcc/arm-none-eabi/10.3.1/thumb/v7e-m+fp/softfp\libgcc.a(_arm_muldivdf3.o)
 .bss           0x00000000        0x0 c:/program files (x86)/gnu arm embedded toolchain/10 2021.10/bin/../lib/gcc/arm-none-eabi/10.3.1/thumb/v7e-m+fp/softfp\libgcc.a(_arm_muldivdf3.o)
 .data          0x00000000        0x0 c:/program files (x86)/gnu arm embedded toolchain/10 2021.10/bin/../lib/gcc/arm-none-eabi/10.3.1/thumb/v7e-m+fp/softfp\libgcc.a(_arm_cmpdf2.o)
 .bss           0x00000000        0x0 c:/program files (x86)/gnu arm embedded toolchain/10 2021.10/bin/../lib/gcc/arm-none-eabi/10.3.1/thumb/v7e-m+fp/softfp\libgcc.a(_arm_cmpdf2.o)
 .data          0x00000000        0x0 c:/program files (x86)/gnu arm embedded toolchain/10 2021.10/bin/../lib/gcc/arm-none-eabi/10.3.1/thumb/v7e-m+fp/softfp\libgcc.a(_arm_fixdfsi.o)
 .bss           0x00000000        0x0 c:/program files (x86)/gnu arm embedded toolchain/10 2021.10/bin/../lib/gcc/arm-none-eabi/10.3.1/thumb/v7e-m+fp/softfp\libgcc.a(_arm_fixdfsi.o)
 .data          0x00000000        0x0 c:/program files (x86)/gnu arm embedded toolchain/10 2021.10/bin/../lib/gcc/arm-none-eabi/10.3.1/thumb/v7e-m+fp/softfp\libgcc.a(_arm_fixunsdfsi.o)
 .bss           0x00000000        0x0 c:/program files (x86)/gnu arm embedded toolchain/10 2021.10/bin/../lib/gcc/arm-none-eabi/10.3.1/thumb/v7e-m+fp/softfp\libgcc.a(_arm_fixunsdfsi.o)
 .data          0x00000000        0x0 c:/program files (x86)/gnu arm embedded toolchain/10 2021.10/bin/../lib/gcc/arm-none-eabi/10.3.1/../../../../arm-none-eabi/lib/thumb/v7e-m+fp/softfp\libg.a(lib_a-memcpy.o)
 .bss           0x00000000        0x0 c:/program files (x86)/gnu arm embedded toolchain/10 2021.10/bin/../lib/gcc/arm-none-eabi/10.3.1/../../../../arm-none-eabi/lib/thumb/v7e-m+fp/softfp\libg.a(lib_a-memcpy.o)
 .text          0x00000000        0x0 c:/program files (x86)/gnu arm embedded toolchain/10 2021.10/bin/../lib/gcc/arm-none-eabi/10.3.1/../../../../arm-none-eabi/lib/thumb/v7e-m+fp/softfp\libg.a(lib_a-memset.o)
 .data          0x00000000        0x0 c:/program files (x86)/gnu arm embedded toolchain/10 2021.10/bin/../lib/gcc/arm-none-eabi/10.3.1/../../../../arm-none-eabi/lib/thumb/v7e-m+fp/softfp\libg.a(lib_a-memset.o)
 .bss           0x00000000        0x0 c:/program files (x86)/gnu arm embedded toolchain/10 2021.10/bin/../lib/gcc/arm-none-eabi/10.3.1/../../../../arm-none-eabi/lib/thumb/v7e-m+fp/softfp\libg.a(lib_a-memset.o)
 .data          0x00000000        0x0 c:/program files (x86)/gnu arm embedded toolchain/10 2021.10/bin/../lib/gcc/arm-none-eabi/10.3.1/../../../../arm-none-eabi/lib/thumb/v7e-m+fp/softfp\libg.a(lib_a-strlen.o)
 .bss           0x00000000        0x0 c:/program files (x86)/gnu arm embedded toolchain/10 2021.10/bin/../lib/gcc/arm-none-eabi/10.3.1/../../../../arm-none-eabi/lib/thumb/v7e-m+fp/softfp\libg.a(lib_a-strlen.o)

Memory Configuration

Name             Origin             Length             Attributes
FLASH_VECT       0x08000000         0x00004000         xr
FLASH_CONST      0x08004000         0x00004000         xr
FLASH_TEXT       0x08008000         0x00038000         xr
SRAM             0x20000000         0x0000a000         xrw
*default*        0x00000000         0xffffffff

Linker script and memory map

START GROUP
LOAD HANcoder_Olimexino_F3_ACC_data.obj
LOAD model.obj
LOAD XcpTargetSpecific.obj
LOAD HANcoder_Olimexino_F3_ACC.obj
LOAD ../blockset/rtw/lib/HANcoder_Olimexino_STM32_F3_RTL.a
END GROUP
LOAD c:/program files (x86)/gnu arm embedded toolchain/10 2021.10/bin/../lib/gcc/arm-none-eabi/10.3.1/../../../../arm-none-eabi/lib/thumb/v7e-m+fp/softfp\libm.a
START GROUP
LOAD c:/program files (x86)/gnu arm embedded toolchain/10 2021.10/bin/../lib/gcc/arm-none-eabi/10.3.1/thumb/v7e-m+fp/softfp\libgcc.a
LOAD c:/program files (x86)/gnu arm embedded toolchain/10 2021.10/bin/../lib/gcc/arm-none-eabi/10.3.1/../../../../arm-none-eabi/lib/thumb/v7e-m+fp/softfp\libg.a
LOAD c:/program files (x86)/gnu arm embedded toolchain/10 2021.10/bin/../lib/gcc/arm-none-eabi/10.3.1/../../../../arm-none-eabi/lib/thumb/v7e-m+fp/softfp\libc.a
END GROUP
                0x000005dc                __STACKSIZE__ = 0x5dc
                0x00000000                __HEAPSIZE__ = 0x0

.vectors        0x08000000      0x154
 *(.isr_vector)
 .isr_vector    0x08000000      0x154 ../blockset/rtw/lib/HANcoder_Olimexino_STM32_F3_RTL.a(vectors.obj)
                0x08000000                _vectab

.text           0x08008000     0x861c
 *(.text.cs3.init)
 *(.text .text.* .gnu.linkonce.t.*)
 .text.ModelBootCroMsgReceived
                0x08008000       0x14 model.obj
 .text.ModelInit
                0x08008014       0x1c model.obj
                0x08008014                ModelInit
 .text.ModelStep
                0x08008030        0x4 model.obj
                0x08008030                ModelStep
 .text.XcpUsbConfigureParamaters
                0x08008034        0xc XcpTargetSpecific.obj
                0x08008034                XcpUsbConfigureParamaters
 .text.XcpUsbReceive
                0x08008040        0xc XcpTargetSpecific.obj
                0x08008040                XcpUsbReceive
 .text.XcpSendData
                0x0800804c       0x80 XcpTargetSpecific.obj
                0x0800804c                XcpSendData
 .text.XcpReadData
                0x080080cc       0x30 XcpTargetSpecific.obj
                0x080080cc                XcpReadData
 .text.XcpWriteData
                0x080080fc       0x30 XcpTargetSpecific.obj
                0x080080fc                XcpWriteData
 .text.PwmoutIRQ_PWMOUT_MODULE_TIM2
                0x0800812c        0x4 HANcoder_Olimexino_F3_ACC.obj
                0x0800812c                PwmoutIRQ_PWMOUT_MODULE_TIM2
 .text.HANcoder_Olimexino_F3_ACC_step
                0x08008130      0x868 HANcoder_Olimexino_F3_ACC.obj
                0x08008130                HANcoder_Olimexino_F3_ACC_step
 .text.HANcoder_Olimexino_F3_ACC_initialize
                0x08008998       0xf8 HANcoder_Olimexino_F3_ACC.obj
                0x08008998                HANcoder_Olimexino_F3_ACC_initialize
 .text.XcpCalculateChecksum.part.0
                0x08008a90       0x2c ../blockset/rtw/lib/HANcoder_Olimexino_STM32_F3_RTL.a(XcpStack.obj)
 .text.XcpPositiveResponse
                0x08008abc       0x24 ../blockset/rtw/lib/HANcoder_Olimexino_STM32_F3_RTL.a(XcpStack.obj)
 .text.XcpNegativeResponse
                0x08008ae0       0x28 ../blockset/rtw/lib/HANcoder_Olimexino_STM32_F3_RTL.a(XcpStack.obj)
 .text.XcpDynamicConfigurator
                0x08008b08       0x10 ../blockset/rtw/lib/HANcoder_Olimexino_STM32_F3_RTL.a(XcpStack.obj)
                0x08008b08                XcpDynamicConfigurator
 .text.XcpCommunicationHandling
                0x08008b18      0x53c ../blockset/rtw/lib/HANcoder_Olimexino_STM32_F3_RTL.a(XcpStack.obj)
                0x08008b18                XcpCommunicationHandling
 .text.XcpDataTransmission
                0x08009054      0x104 ../blockset/rtw/lib/HANcoder_Olimexino_STM32_F3_RTL.a(XcpStack.obj)
                0x08009054                XcpDataTransmission
 .text.AppCtrlTask
                0x08009158       0x24 ../blockset/rtw/lib/HANcoder_Olimexino_STM32_F3_RTL.a(app.obj)
                0x08009158                AppCtrlTask
 .text.AppInit  0x0800917c       0x5c ../blockset/rtw/lib/HANcoder_Olimexino_STM32_F3_RTL.a(app.obj)
                0x0800917c                AppInit
 .text.AppCtrlTaskSetPeriod
                0x080091d8       0x18 ../blockset/rtw/lib/HANcoder_Olimexino_STM32_F3_RTL.a(app.obj)
                0x080091d8                AppCtrlTaskSetPeriod
 .text.AppCtrlTaskSetStackSize
                0x080091f0       0x14 ../blockset/rtw/lib/HANcoder_Olimexino_STM32_F3_RTL.a(app.obj)
                0x080091f0                AppCtrlTaskSetStackSize
 .text.AninConvert.part.0
                0x08009204      0x2b0 ../blockset/rtw/lib/HANcoder_Olimexino_STM32_F3_RTL.a(anin.obj)
 .text.ADCconversionTaskSetPeriod
                0x080094b4       0x18 ../blockset/rtw/lib/HANcoder_Olimexino_STM32_F3_RTL.a(anin.obj)
                0x080094b4                ADCconversionTaskSetPeriod
 .text.ADCconversionTask
                0x080094cc       0x30 ../blockset/rtw/lib/HANcoder_Olimexino_STM32_F3_RTL.a(anin.obj)
                0x080094cc                ADCconversionTask
 .text.ADCconversionTaskFunction
                0x080094fc       0x14 ../blockset/rtw/lib/HANcoder_Olimexino_STM32_F3_RTL.a(anin.obj)
                0x080094fc                ADCconversionTaskFunction
 .text.CanEventTask
                0x08009510       0xd0 ../blockset/rtw/lib/HANcoder_Olimexino_STM32_F3_RTL.a(can.obj)
 .text.CanTransmitTask
                0x080095e0       0xf0 ../blockset/rtw/lib/HANcoder_Olimexino_STM32_F3_RTL.a(can.obj)
 .text.CanInit  0x080096d0      0x164 ../blockset/rtw/lib/HANcoder_Olimexino_STM32_F3_RTL.a(can.obj)
                0x080096d0                CanInit
 .text.CanConnect
                0x08009834      0x2f4 ../blockset/rtw/lib/HANcoder_Olimexino_STM32_F3_RTL.a(can.obj)
                0x08009834                CanConnect
 .text.CanTransmit
                0x08009b28       0xa0 ../blockset/rtw/lib/HANcoder_Olimexino_STM32_F3_RTL.a(can.obj)
                0x08009b28                CanTransmit
 .text.CanRegisterGenericTransmittedCallback
                0x08009bc8       0x18 ../blockset/rtw/lib/HANcoder_Olimexino_STM32_F3_RTL.a(can.obj)
                0x08009bc8                CanRegisterGenericTransmittedCallback
 .text.CanRegisterGenericReceivedCallback
                0x08009be0       0x18 ../blockset/rtw/lib/HANcoder_Olimexino_STM32_F3_RTL.a(can.obj)
                0x08009be0                CanRegisterGenericReceivedCallback
 .text.CanRx0Interrupt
                0x08009bf8      0x154 ../blockset/rtw/lib/HANcoder_Olimexino_STM32_F3_RTL.a(can.obj)
                0x08009bf8                CanRx0Interrupt
 .text.CanRx1Interrupt
                0x08009d4c      0x154 ../blockset/rtw/lib/HANcoder_Olimexino_STM32_F3_RTL.a(can.obj)
                0x08009d4c                CanRx1Interrupt
 .text.CanTxInterrupt
                0x08009ea0       0xe4 ../blockset/rtw/lib/HANcoder_Olimexino_STM32_F3_RTL.a(can.obj)
                0x08009ea0                CanTxInterrupt
 .text.CanErrorInterrupt
                0x08009f84       0x7c ../blockset/rtw/lib/HANcoder_Olimexino_STM32_F3_RTL.a(can.obj)
                0x08009f84                CanErrorInterrupt
 .text.CanIoGenericMessageTransmittedCallback
                0x0800a000       0x28 ../blockset/rtw/lib/HANcoder_Olimexino_STM32_F3_RTL.a(canio.obj)
 .text.CanIoGenericMessageReceivedCallback
                0x0800a028       0xe0 ../blockset/rtw/lib/HANcoder_Olimexino_STM32_F3_RTL.a(canio.obj)
 .text.CanIoInit
                0x0800a108       0x40 ../blockset/rtw/lib/HANcoder_Olimexino_STM32_F3_RTL.a(canio.obj)
                0x0800a108                CanIoInit
 .text.CanIoCreateMessageReceivedStorage
                0x0800a148       0x40 ../blockset/rtw/lib/HANcoder_Olimexino_STM32_F3_RTL.a(canio.obj)
                0x0800a148                CanIoCreateMessageReceivedStorage
 .text.CanIoGetMessage
                0x0800a188       0x64 ../blockset/rtw/lib/HANcoder_Olimexino_STM32_F3_RTL.a(canio.obj)
                0x0800a188                CanIoGetMessage
 .text.CanIoRegisterMessageReceivedCallback
                0x0800a1ec       0x44 ../blockset/rtw/lib/HANcoder_Olimexino_STM32_F3_RTL.a(canio.obj)
                0x0800a1ec                CanIoRegisterMessageReceivedCallback
 .text.DiginConfigure
                0x0800a230       0x6c ../blockset/rtw/lib/HANcoder_Olimexino_STM32_F3_RTL.a(digin.obj)
                0x0800a230                DiginConfigure
 .text.DiginGet
                0x0800a29c       0x38 ../blockset/rtw/lib/HANcoder_Olimexino_STM32_F3_RTL.a(digin.obj)
                0x0800a29c                DiginGet
 .text.OsCpuLoadTimerCallback
                0x0800a2d4       0x44 ../blockset/rtw/lib/HANcoder_Olimexino_STM32_F3_RTL.a(os.obj)
 .text.OsCompareTaskNames
                0x0800a318       0x3c ../blockset/rtw/lib/HANcoder_Olimexino_STM32_F3_RTL.a(os.obj)
 .text.startup.main
                0x0800a354       0x98 ../blockset/rtw/lib/HANcoder_Olimexino_STM32_F3_RTL.a(os.obj)
                0x0800a354                main
 .text.OsIrqEnter
                0x0800a3ec        0x4 ../blockset/rtw/lib/HANcoder_Olimexino_STM32_F3_RTL.a(os.obj)
                0x0800a3ec                OsIrqEnter
 .text.OsIrqExit
                0x0800a3f0        0x4 ../blockset/rtw/lib/HANcoder_Olimexino_STM32_F3_RTL.a(os.obj)
                0x0800a3f0                OsIrqExit
 .text.OsEnterCriticalSection
                0x0800a3f4        0x4 ../blockset/rtw/lib/HANcoder_Olimexino_STM32_F3_RTL.a(os.obj)
                0x0800a3f4                OsEnterCriticalSection
 .text.OsLeaveCriticalSection
                0x0800a3f8        0x4 ../blockset/rtw/lib/HANcoder_Olimexino_STM32_F3_RTL.a(os.obj)
                0x0800a3f8                OsLeaveCriticalSection
 .text.OsSystemReset
                0x0800a3fc        0x4 ../blockset/rtw/lib/HANcoder_Olimexino_STM32_F3_RTL.a(os.obj)
                0x0800a3fc                OsSystemReset
 .text.OsGetCpuLoad
                0x0800a400        0xc ../blockset/rtw/lib/HANcoder_Olimexino_STM32_F3_RTL.a(os.obj)
                0x0800a400                OsGetCpuLoad
 .text.OsGetFreeHeapSize
                0x0800a40c        0x4 ../blockset/rtw/lib/HANcoder_Olimexino_STM32_F3_RTL.a(os.obj)
                0x0800a40c                OsGetFreeHeapSize
 .text.OsGetTaskFreeStackSize
                0x0800a410       0x54 ../blockset/rtw/lib/HANcoder_Olimexino_STM32_F3_RTL.a(os.obj)
                0x0800a410                OsGetTaskFreeStackSize
 .text.OsTaskCreatedCallback
                0x0800a464       0x74 ../blockset/rtw/lib/HANcoder_Olimexino_STM32_F3_RTL.a(os.obj)
                0x0800a464                OsTaskCreatedCallback
 .text.vApplicationTickHook
                0x0800a4d8       0x28 ../blockset/rtw/lib/HANcoder_Olimexino_STM32_F3_RTL.a(os.obj)
                0x0800a4d8                vApplicationTickHook
 .text.AssertFailure
                0x0800a500        0xc ../blockset/rtw/lib/HANcoder_Olimexino_STM32_F3_RTL.a(os.obj)
                0x0800a500                AssertFailure
 .text.OsRunTimeMeasurementTickEvent
                0x0800a50c       0x1c ../blockset/rtw/lib/HANcoder_Olimexino_STM32_F3_RTL.a(os.obj)
                0x0800a50c                OsRunTimeMeasurementTickEvent
 .text.OsIdleRunTimeMeasurementStart
                0x0800a528       0x1c ../blockset/rtw/lib/HANcoder_Olimexino_STM32_F3_RTL.a(os.obj)
                0x0800a528                OsIdleRunTimeMeasurementStart
 .text.OsIdleRunTimeMeasurementStop
                0x0800a544        0xc ../blockset/rtw/lib/HANcoder_Olimexino_STM32_F3_RTL.a(os.obj)
                0x0800a544                OsIdleRunTimeMeasurementStop
 .text.prvCopyDataToQueue
                0x0800a550       0x78 ../blockset/rtw/lib/HANcoder_Olimexino_STM32_F3_RTL.a(queue.obj)
 .text.prvCopyDataFromQueue
                0x0800a5c8       0x24 ../blockset/rtw/lib/HANcoder_Olimexino_STM32_F3_RTL.a(queue.obj)
 .text.prvUnlockQueue
                0x0800a5ec       0x84 ../blockset/rtw/lib/HANcoder_Olimexino_STM32_F3_RTL.a(queue.obj)
 .text.xQueueGenericReset
                0x0800a670       0x74 ../blockset/rtw/lib/HANcoder_Olimexino_STM32_F3_RTL.a(queue.obj)
                0x0800a670                xQueueGenericReset
 .text.xQueueGenericCreate
                0x0800a6e4       0x5c ../blockset/rtw/lib/HANcoder_Olimexino_STM32_F3_RTL.a(queue.obj)
                0x0800a6e4                xQueueGenericCreate
 .text.xQueueGenericSend
                0x0800a740      0x154 ../blockset/rtw/lib/HANcoder_Olimexino_STM32_F3_RTL.a(queue.obj)
                0x0800a740                xQueueGenericSend
 .text.xQueueGenericSendFromISR
                0x0800a894       0xc8 ../blockset/rtw/lib/HANcoder_Olimexino_STM32_F3_RTL.a(queue.obj)
                0x0800a894                xQueueGenericSendFromISR
 .text.xQueueGenericReceive
                0x0800a95c      0x174 ../blockset/rtw/lib/HANcoder_Olimexino_STM32_F3_RTL.a(queue.obj)
                0x0800a95c                xQueueGenericReceive
 .text.xQueueReceiveFromISR
                0x0800aad0       0x90 ../blockset/rtw/lib/HANcoder_Olimexino_STM32_F3_RTL.a(queue.obj)
                0x0800aad0                xQueueReceiveFromISR
 .text.uxQueueMessagesWaitingFromISR
                0x0800ab60       0x1c ../blockset/rtw/lib/HANcoder_Olimexino_STM32_F3_RTL.a(queue.obj)
                0x0800ab60                uxQueueMessagesWaitingFromISR
 .text.vQueueWaitForMessageRestricted
                0x0800ab7c       0x40 ../blockset/rtw/lib/HANcoder_Olimexino_STM32_F3_RTL.a(queue.obj)
                0x0800ab7c                vQueueWaitForMessageRestricted
 .text.prvIdleTask
                0x0800abbc       0x14 ../blockset/rtw/lib/HANcoder_Olimexino_STM32_F3_RTL.a(tasks.obj)
 .text.prvTaskIsTaskSuspended
                0x0800abd0       0x3c ../blockset/rtw/lib/HANcoder_Olimexino_STM32_F3_RTL.a(tasks.obj)
 .text.prvAddCurrentTaskToDelayedList
                0x0800ac0c       0x4c ../blockset/rtw/lib/HANcoder_Olimexino_STM32_F3_RTL.a(tasks.obj)
 .text.vTaskSwitchContext.part.4
                0x0800ac58       0xa8 ../blockset/rtw/lib/HANcoder_Olimexino_STM32_F3_RTL.a(tasks.obj)
 .text.xTaskGenericCreate
                0x0800ad00      0x208 ../blockset/rtw/lib/HANcoder_Olimexino_STM32_F3_RTL.a(tasks.obj)
                0x0800ad00                xTaskGenericCreate
 .text.vTaskSuspend
                0x0800af08      0x104 ../blockset/rtw/lib/HANcoder_Olimexino_STM32_F3_RTL.a(tasks.obj)
                0x0800af08                vTaskSuspend
 .text.vTaskResume
                0x0800b00c       0x7c ../blockset/rtw/lib/HANcoder_Olimexino_STM32_F3_RTL.a(tasks.obj)
                0x0800b00c                vTaskResume
 .text.vTaskStartScheduler
                0x0800b088       0x7c ../blockset/rtw/lib/HANcoder_Olimexino_STM32_F3_RTL.a(tasks.obj)
                0x0800b088                vTaskStartScheduler
 .text.vTaskSuspendAll
                0x0800b104       0x10 ../blockset/rtw/lib/HANcoder_Olimexino_STM32_F3_RTL.a(tasks.obj)
                0x0800b104                vTaskSuspendAll
 .text.xTaskGetTickCount
                0x0800b114        0xc ../blockset/rtw/lib/HANcoder_Olimexino_STM32_F3_RTL.a(tasks.obj)
                0x0800b114                xTaskGetTickCount
 .text.xTaskIncrementTick
                0x0800b120      0x180 ../blockset/rtw/lib/HANcoder_Olimexino_STM32_F3_RTL.a(tasks.obj)
                0x0800b120                xTaskIncrementTick
 .text.xTaskResumeAll
                0x0800b2a0       0xf0 ../blockset/rtw/lib/HANcoder_Olimexino_STM32_F3_RTL.a(tasks.obj)
                0x0800b2a0                xTaskResumeAll
 .text.vTaskDelayUntil
                0x0800b390       0xb4 ../blockset/rtw/lib/HANcoder_Olimexino_STM32_F3_RTL.a(tasks.obj)
                0x0800b390                vTaskDelayUntil
 .text.vTaskSwitchContext
                0x0800b444       0x1c ../blockset/rtw/lib/HANcoder_Olimexino_STM32_F3_RTL.a(tasks.obj)
                0x0800b444                vTaskSwitchContext
 .text.vTaskPlaceOnEventList
                0x0800b460       0x70 ../blockset/rtw/lib/HANcoder_Olimexino_STM32_F3_RTL.a(tasks.obj)
                0x0800b460                vTaskPlaceOnEventList
 .text.vTaskPlaceOnEventListRestricted
                0x0800b4d0       0x74 ../blockset/rtw/lib/HANcoder_Olimexino_STM32_F3_RTL.a(tasks.obj)
                0x0800b4d0                vTaskPlaceOnEventListRestricted
 .text.xTaskRemoveFromEventList
                0x0800b544       0x88 ../blockset/rtw/lib/HANcoder_Olimexino_STM32_F3_RTL.a(tasks.obj)
                0x0800b544                xTaskRemoveFromEventList
 .text.vTaskSetTimeOutState
                0x0800b5cc       0x2c ../blockset/rtw/lib/HANcoder_Olimexino_STM32_F3_RTL.a(tasks.obj)
                0x0800b5cc                vTaskSetTimeOutState
 .text.xTaskCheckForTimeOut
                0x0800b5f8       0x80 ../blockset/rtw/lib/HANcoder_Olimexino_STM32_F3_RTL.a(tasks.obj)
                0x0800b5f8                xTaskCheckForTimeOut
 .text.vTaskMissedYield
                0x0800b678        0xc ../blockset/rtw/lib/HANcoder_Olimexino_STM32_F3_RTL.a(tasks.obj)
                0x0800b678                vTaskMissedYield
 .text.uxTaskGetStackHighWaterMark
                0x0800b684       0x2c ../blockset/rtw/lib/HANcoder_Olimexino_STM32_F3_RTL.a(tasks.obj)
                0x0800b684                uxTaskGetStackHighWaterMark
 .text.xTaskGetSchedulerState
                0x0800b6b0       0x20 ../blockset/rtw/lib/HANcoder_Olimexino_STM32_F3_RTL.a(tasks.obj)
                0x0800b6b0                xTaskGetSchedulerState
 .text.vTaskPriorityInherit
                0x0800b6d0       0x9c ../blockset/rtw/lib/HANcoder_Olimexino_STM32_F3_RTL.a(tasks.obj)
                0x0800b6d0                vTaskPriorityInherit
 .text.xTaskPriorityDisinherit
                0x0800b76c       0xac ../blockset/rtw/lib/HANcoder_Olimexino_STM32_F3_RTL.a(tasks.obj)
                0x0800b76c                xTaskPriorityDisinherit
 .text.pvTaskIncrementMutexHeldCount
                0x0800b818       0x18 ../blockset/rtw/lib/HANcoder_Olimexino_STM32_F3_RTL.a(tasks.obj)
                0x0800b818                pvTaskIncrementMutexHeldCount
 .text.prvCheckForValidListAndQueue
                0x0800b830       0x60 ../blockset/rtw/lib/HANcoder_Olimexino_STM32_F3_RTL.a(timers.obj)
 .text.prvInsertTimerInActiveList
                0x0800b890       0x44 ../blockset/rtw/lib/HANcoder_Olimexino_STM32_F3_RTL.a(timers.obj)
 .text.xTimerCreateTimerTask
                0x0800b8d4       0x4c ../blockset/rtw/lib/HANcoder_Olimexino_STM32_F3_RTL.a(timers.obj)
                0x0800b8d4                xTimerCreateTimerTask
 .text.xTimerCreate
                0x0800b920       0x4c ../blockset/rtw/lib/HANcoder_Olimexino_STM32_F3_RTL.a(timers.obj)
                0x0800b920                xTimerCreate
 .text.xTimerGenericCommand
                0x0800b96c       0x6c ../blockset/rtw/lib/HANcoder_Olimexino_STM32_F3_RTL.a(timers.obj)
                0x0800b96c                xTimerGenericCommand
 .text.prvSwitchTimerLists
                0x0800b9d8       0x88 ../blockset/rtw/lib/HANcoder_Olimexino_STM32_F3_RTL.a(timers.obj)
 .text.prvTimerTask
                0x0800ba60      0x1b8 ../blockset/rtw/lib/HANcoder_Olimexino_STM32_F3_RTL.a(timers.obj)
 .text.prvPortStartFirstTask
                0x0800bc18       0x20 ../blockset/rtw/lib/HANcoder_Olimexino_STM32_F3_RTL.a(port.obj)
 .text.vPortEnableVFP
                0x0800bc38       0x14 ../blockset/rtw/lib/HANcoder_Olimexino_STM32_F3_RTL.a(port.obj)
 .text.pxPortInitialiseStack
                0x0800bc4c       0x2c ../blockset/rtw/lib/HANcoder_Olimexino_STM32_F3_RTL.a(port.obj)
                0x0800bc4c                pxPortInitialiseStack
 .text.vPortSVCHandler
                0x0800bc78       0x20 ../blockset/rtw/lib/HANcoder_Olimexino_STM32_F3_RTL.a(port.obj)
                0x0800bc78                vPortSVCHandler
 .text.vPortYield
                0x0800bc98       0x18 ../blockset/rtw/lib/HANcoder_Olimexino_STM32_F3_RTL.a(port.obj)
                0x0800bc98                vPortYield
 .text.ulPortSetInterruptMask
                0x0800bcb0       0x10 ../blockset/rtw/lib/HANcoder_Olimexino_STM32_F3_RTL.a(port.obj)
                0x0800bcb0                ulPortSetInterruptMask
 .text.prvTaskExitError
                0x0800bcc0       0x20 ../blockset/rtw/lib/HANcoder_Olimexino_STM32_F3_RTL.a(port.obj)
 .text.vPortEnterCritical
                0x0800bce0       0x38 ../blockset/rtw/lib/HANcoder_Olimexino_STM32_F3_RTL.a(port.obj)
                0x0800bce0                vPortEnterCritical
 .text.vPortClearInterruptMask
                0x0800bd18        0x8 ../blockset/rtw/lib/HANcoder_Olimexino_STM32_F3_RTL.a(port.obj)
                0x0800bd18                vPortClearInterruptMask
 .text.vPortExitCritical
                0x0800bd20       0x30 ../blockset/rtw/lib/HANcoder_Olimexino_STM32_F3_RTL.a(port.obj)
                0x0800bd20                vPortExitCritical
 .text.xPortPendSVHandler
                0x0800bd50       0x60 ../blockset/rtw/lib/HANcoder_Olimexino_STM32_F3_RTL.a(port.obj)
                0x0800bd50                xPortPendSVHandler
 .text.xPortSysTickHandler
                0x0800bdb0       0x54 ../blockset/rtw/lib/HANcoder_Olimexino_STM32_F3_RTL.a(port.obj)
                0x0800bdb0                xPortSysTickHandler
 .text.vPortSetupTimerInterrupt
                0x0800be04       0x18 ../blockset/rtw/lib/HANcoder_Olimexino_STM32_F3_RTL.a(port.obj)
                0x0800be04                vPortSetupTimerInterrupt
 .text.xPortStartScheduler
                0x0800be1c       0xe8 ../blockset/rtw/lib/HANcoder_Olimexino_STM32_F3_RTL.a(port.obj)
                0x0800be1c                xPortStartScheduler
 .text.vPortValidateInterruptPriority
                0x0800bf04       0x58 ../blockset/rtw/lib/HANcoder_Olimexino_STM32_F3_RTL.a(port.obj)
                0x0800bf04                vPortValidateInterruptPriority
 .text.prvInsertBlockIntoFreeList
                0x0800bf5c       0x5c ../blockset/rtw/lib/HANcoder_Olimexino_STM32_F3_RTL.a(heap_4.obj)
 .text.pvPortMalloc
                0x0800bfb8      0x13c ../blockset/rtw/lib/HANcoder_Olimexino_STM32_F3_RTL.a(heap_4.obj)
                0x0800bfb8                pvPortMalloc
 .text.vPortFree
                0x0800c0f4       0x88 ../blockset/rtw/lib/HANcoder_Olimexino_STM32_F3_RTL.a(heap_4.obj)
                0x0800c0f4                vPortFree
 .text.xPortGetFreeHeapSize
                0x0800c17c        0xc ../blockset/rtw/lib/HANcoder_Olimexino_STM32_F3_RTL.a(heap_4.obj)
                0x0800c17c                xPortGetFreeHeapSize
 .text.NVIC_PriorityGroupConfig
                0x0800c188       0x14 ../blockset/rtw/lib/HANcoder_Olimexino_STM32_F3_RTL.a(misc.obj)
                0x0800c188                NVIC_PriorityGroupConfig
 .text.NVIC_Init
                0x0800c19c       0x70 ../blockset/rtw/lib/HANcoder_Olimexino_STM32_F3_RTL.a(misc.obj)
                0x0800c19c                NVIC_Init
 .text.ADC_DeInit
                0x0800c20c       0x58 ../blockset/rtw/lib/HANcoder_Olimexino_STM32_F3_RTL.a(stm32f30x_adc.obj)
                0x0800c20c                ADC_DeInit
 .text.ADC_Init
                0x0800c264       0x40 ../blockset/rtw/lib/HANcoder_Olimexino_STM32_F3_RTL.a(stm32f30x_adc.obj)
                0x0800c264                ADC_Init
 .text.ADC_Cmd  0x0800c2a4       0x14 ../blockset/rtw/lib/HANcoder_Olimexino_STM32_F3_RTL.a(stm32f30x_adc.obj)
                0x0800c2a4                ADC_Cmd
 .text.ADC_RegularChannelConfig
                0x0800c2b8       0xc4 ../blockset/rtw/lib/HANcoder_Olimexino_STM32_F3_RTL.a(stm32f30x_adc.obj)
                0x0800c2b8                ADC_RegularChannelConfig
 .text.ADC_StartConversion
                0x0800c37c        0xc ../blockset/rtw/lib/HANcoder_Olimexino_STM32_F3_RTL.a(stm32f30x_adc.obj)
                0x0800c37c                ADC_StartConversion
 .text.ADC_DMACmd
                0x0800c388       0x14 ../blockset/rtw/lib/HANcoder_Olimexino_STM32_F3_RTL.a(stm32f30x_adc.obj)
                0x0800c388                ADC_DMACmd
 .text.ADC_DMAConfig
                0x0800c39c       0x10 ../blockset/rtw/lib/HANcoder_Olimexino_STM32_F3_RTL.a(stm32f30x_adc.obj)
                0x0800c39c                ADC_DMAConfig
 .text.ADC_GetFlagStatus
                0x0800c3ac        0xc ../blockset/rtw/lib/HANcoder_Olimexino_STM32_F3_RTL.a(stm32f30x_adc.obj)
                0x0800c3ac                ADC_GetFlagStatus
 .text.CAN_DeInit
                0x0800c3b8       0x1c ../blockset/rtw/lib/HANcoder_Olimexino_STM32_F3_RTL.a(stm32f30x_can.obj)
                0x0800c3b8                CAN_DeInit
 .text.CAN_Init
                0x0800c3d4      0x118 ../blockset/rtw/lib/HANcoder_Olimexino_STM32_F3_RTL.a(stm32f30x_can.obj)
                0x0800c3d4                CAN_Init
 .text.CAN_FilterInit
                0x0800c4ec       0xf4 ../blockset/rtw/lib/HANcoder_Olimexino_STM32_F3_RTL.a(stm32f30x_can.obj)
                0x0800c4ec                CAN_FilterInit
 .text.CAN_StructInit
                0x0800c5e0       0x28 ../blockset/rtw/lib/HANcoder_Olimexino_STM32_F3_RTL.a(stm32f30x_can.obj)
                0x0800c5e0                CAN_StructInit
 .text.CAN_Transmit
                0x0800c608       0xac ../blockset/rtw/lib/HANcoder_Olimexino_STM32_F3_RTL.a(stm32f30x_can.obj)
                0x0800c608                CAN_Transmit
 .text.CAN_Receive
                0x0800c6b4       0xa0 ../blockset/rtw/lib/HANcoder_Olimexino_STM32_F3_RTL.a(stm32f30x_can.obj)
                0x0800c6b4                CAN_Receive
 .text.CAN_MessagePending
                0x0800c754       0x18 ../blockset/rtw/lib/HANcoder_Olimexino_STM32_F3_RTL.a(stm32f30x_can.obj)
                0x0800c754                CAN_MessagePending
 .text.CAN_GetLSBTransmitErrorCounter
                0x0800c76c        0x8 ../blockset/rtw/lib/HANcoder_Olimexino_STM32_F3_RTL.a(stm32f30x_can.obj)
                0x0800c76c                CAN_GetLSBTransmitErrorCounter
 .text.CAN_ITConfig
                0x0800c774       0x14 ../blockset/rtw/lib/HANcoder_Olimexino_STM32_F3_RTL.a(stm32f30x_can.obj)
                0x0800c774                CAN_ITConfig
 .text.CAN_GetFlagStatus
                0x0800c788       0x54 ../blockset/rtw/lib/HANcoder_Olimexino_STM32_F3_RTL.a(stm32f30x_can.obj)
                0x0800c788                CAN_GetFlagStatus
 .text.CAN_ClearFlag
                0x0800c7dc       0x30 ../blockset/rtw/lib/HANcoder_Olimexino_STM32_F3_RTL.a(stm32f30x_can.obj)
                0x0800c7dc                CAN_ClearFlag
 .text.CAN_GetITStatus
                0x0800c80c       0xe4 ../blockset/rtw/lib/HANcoder_Olimexino_STM32_F3_RTL.a(stm32f30x_can.obj)
                0x0800c80c                CAN_GetITStatus
 .text.CAN_ClearITPendingBit
                0x0800c8f0       0x8c ../blockset/rtw/lib/HANcoder_Olimexino_STM32_F3_RTL.a(stm32f30x_can.obj)
                0x0800c8f0                CAN_ClearITPendingBit
 .text.DMA_DeInit
                0x0800c97c      0x128 ../blockset/rtw/lib/HANcoder_Olimexino_STM32_F3_RTL.a(stm32f30x_dma.obj)
                0x0800c97c                DMA_DeInit
 .text.DMA_Init
                0x0800caa4       0x40 ../blockset/rtw/lib/HANcoder_Olimexino_STM32_F3_RTL.a(stm32f30x_dma.obj)
                0x0800caa4                DMA_Init
 .text.DMA_Cmd  0x0800cae4       0x18 ../blockset/rtw/lib/HANcoder_Olimexino_STM32_F3_RTL.a(stm32f30x_dma.obj)
                0x0800cae4                DMA_Cmd
 .text.GPIO_Init
                0x0800cafc       0xb8 ../blockset/rtw/lib/HANcoder_Olimexino_STM32_F3_RTL.a(stm32f30x_gpio.obj)
                0x0800cafc                GPIO_Init
 .text.GPIO_ReadInputDataBit
                0x0800cbb4        0xc ../blockset/rtw/lib/HANcoder_Olimexino_STM32_F3_RTL.a(stm32f30x_gpio.obj)
                0x0800cbb4                GPIO_ReadInputDataBit
 .text.GPIO_SetBits
                0x0800cbc0        0x4 ../blockset/rtw/lib/HANcoder_Olimexino_STM32_F3_RTL.a(stm32f30x_gpio.obj)
                0x0800cbc0                GPIO_SetBits
 .text.GPIO_ResetBits
                0x0800cbc4        0x4 ../blockset/rtw/lib/HANcoder_Olimexino_STM32_F3_RTL.a(stm32f30x_gpio.obj)
                0x0800cbc4                GPIO_ResetBits
 .text.GPIO_WriteBit
                0x0800cbc8        0xc ../blockset/rtw/lib/HANcoder_Olimexino_STM32_F3_RTL.a(stm32f30x_gpio.obj)
                0x0800cbc8                GPIO_WriteBit
 .text.GPIO_PinAFConfig
                0x0800cbd4       0x2c ../blockset/rtw/lib/HANcoder_Olimexino_STM32_F3_RTL.a(stm32f30x_gpio.obj)
                0x0800cbd4                GPIO_PinAFConfig
 .text.RCC_USBCLKConfig
                0x0800cc00        0xc ../blockset/rtw/lib/HANcoder_Olimexino_STM32_F3_RTL.a(stm32f30x_rcc.obj)
                0x0800cc00                RCC_USBCLKConfig
 .text.RCC_AHBPeriphClockCmd
                0x0800cc0c       0x1c ../blockset/rtw/lib/HANcoder_Olimexino_STM32_F3_RTL.a(stm32f30x_rcc.obj)
                0x0800cc0c                RCC_AHBPeriphClockCmd
 .text.RCC_APB2PeriphClockCmd
                0x0800cc28       0x1c ../blockset/rtw/lib/HANcoder_Olimexino_STM32_F3_RTL.a(stm32f30x_rcc.obj)
                0x0800cc28                RCC_APB2PeriphClockCmd
 .text.RCC_APB1PeriphClockCmd
                0x0800cc44       0x1c ../blockset/rtw/lib/HANcoder_Olimexino_STM32_F3_RTL.a(stm32f30x_rcc.obj)
                0x0800cc44                RCC_APB1PeriphClockCmd
 .text.RCC_AHBPeriphResetCmd
                0x0800cc60       0x1c ../blockset/rtw/lib/HANcoder_Olimexino_STM32_F3_RTL.a(stm32f30x_rcc.obj)
                0x0800cc60                RCC_AHBPeriphResetCmd
 .text.RCC_APB1PeriphResetCmd
                0x0800cc7c       0x1c ../blockset/rtw/lib/HANcoder_Olimexino_STM32_F3_RTL.a(stm32f30x_rcc.obj)
                0x0800cc7c                RCC_APB1PeriphResetCmd
 .text.Timer4Interrupt
                0x0800cc98       0x14 ../blockset/rtw/lib/HANcoder_Olimexino_STM32_F3_RTL.a(vectors.obj)
 .text.Timer3Interrupt
                0x0800ccac       0x14 ../blockset/rtw/lib/HANcoder_Olimexino_STM32_F3_RTL.a(vectors.obj)
 .text.Timer2Interrupt
                0x0800ccc0       0x14 ../blockset/rtw/lib/HANcoder_Olimexino_STM32_F3_RTL.a(vectors.obj)
 .text.Timer1CaptureInterrupt
                0x0800ccd4       0x10 ../blockset/rtw/lib/HANcoder_Olimexino_STM32_F3_RTL.a(vectors.obj)
 .text.Timer1UpdateInterrupt
                0x0800cce4       0x14 ../blockset/rtw/lib/HANcoder_Olimexino_STM32_F3_RTL.a(vectors.obj)
 .text.UsbCanRx0MuxedIrqHandler
                0x0800ccf8       0x10 ../blockset/rtw/lib/HANcoder_Olimexino_STM32_F3_RTL.a(vectors.obj)
 .text.QuadEncUpdate
                0x0800cd08       0x7c ../blockset/rtw/lib/HANcoder_Olimexino_STM32_F3_RTL.a(quadencoder.obj)
                0x0800cd08                QuadEncUpdate
 .text.ErrCodesReadStoredError
                0x0800cd84       0x58 ../blockset/rtw/lib/HANcoder_Olimexino_STM32_F3_RTL.a(errorcodes.obj)
 .text.ErrCodesProgramStoredError
                0x0800cddc       0x64 ../blockset/rtw/lib/HANcoder_Olimexino_STM32_F3_RTL.a(errorcodes.obj)
 .text.ErrCodesInit
                0x0800ce40       0x48 ../blockset/rtw/lib/HANcoder_Olimexino_STM32_F3_RTL.a(errorcodes.obj)
                0x0800ce40                ErrCodesInit
 .text.ErrCodesSetError
                0x0800ce88       0xd0 ../blockset/rtw/lib/HANcoder_Olimexino_STM32_F3_RTL.a(errorcodes.obj)
                0x0800ce88                ErrCodesSetError
 .text.EepromInit
                0x0800cf58        0x4 ../blockset/rtw/lib/HANcoder_Olimexino_STM32_F3_RTL.a(eeprom.obj)
                0x0800cf58                EepromInit
 .text.ResetMicrocontroller
                0x0800cf5c       0x1c ../blockset/rtw/lib/HANcoder_Olimexino_STM32_F3_RTL.a(reset.obj)
                0x0800cf5c                ResetMicrocontroller
 .text.EepromSimInit
                0x0800cf78       0x28 ../blockset/rtw/lib/HANcoder_Olimexino_STM32_F3_RTL.a(eeprom_sim.obj)
                0x0800cf78                EepromSimInit
 .text.EepromSimUINT32Get
                0x0800cfa0       0x24 ../blockset/rtw/lib/HANcoder_Olimexino_STM32_F3_RTL.a(eeprom_sim.obj)
                0x0800cfa0                EepromSimUINT32Get
 .text.EepromSimUINT32Set
                0x0800cfc4       0x38 ../blockset/rtw/lib/HANcoder_Olimexino_STM32_F3_RTL.a(eeprom_sim.obj)
                0x0800cfc4                EepromSimUINT32Set
 .text.PwmoutModulePeriodCompleteInterrupt
                0x0800cffc       0x38 ../blockset/rtw/lib/HANcoder_Olimexino_STM32_F3_RTL.a(pwmout.obj)
 .text.PwmoutInit
                0x0800d034       0xec ../blockset/rtw/lib/HANcoder_Olimexino_STM32_F3_RTL.a(pwmout.obj)
                0x0800d034                PwmoutInit
 .text.PwmoutConfigure
                0x0800d120      0x1d4 ../blockset/rtw/lib/HANcoder_Olimexino_STM32_F3_RTL.a(pwmout.obj)
                0x0800d120                PwmoutConfigure
 .text.PwmoutSet
                0x0800d2f4       0x8c ../blockset/rtw/lib/HANcoder_Olimexino_STM32_F3_RTL.a(pwmout.obj)
                0x0800d2f4                PwmoutSet
 .text.PwmoutRegisterPeriodCompleteCallback
                0x0800d380       0x24 ../blockset/rtw/lib/HANcoder_Olimexino_STM32_F3_RTL.a(pwmout.obj)
                0x0800d380                PwmoutRegisterPeriodCompleteCallback
 .text.Pwmout1UpdateInterrupt
                0x0800d3a4       0x20 ../blockset/rtw/lib/HANcoder_Olimexino_STM32_F3_RTL.a(pwmout.obj)
                0x0800d3a4                Pwmout1UpdateInterrupt
 .text.Pwmout2Interrupt
                0x0800d3c4       0x1c ../blockset/rtw/lib/HANcoder_Olimexino_STM32_F3_RTL.a(pwmout.obj)
                0x0800d3c4                Pwmout2Interrupt
 .text.Pwmout3Interrupt
                0x0800d3e0       0x20 ../blockset/rtw/lib/HANcoder_Olimexino_STM32_F3_RTL.a(pwmout.obj)
                0x0800d3e0                Pwmout3Interrupt
 .text.Pwmout4Interrupt
                0x0800d400       0x20 ../blockset/rtw/lib/HANcoder_Olimexino_STM32_F3_RTL.a(pwmout.obj)
                0x0800d400                Pwmout4Interrupt
 .text.TimeinOverflowInterrupt
                0x0800d420       0xc8 ../blockset/rtw/lib/HANcoder_Olimexino_STM32_F3_RTL.a(timein.obj)
 .text.TimeinClearITPendingBit
                0x0800d4e8       0x9c ../blockset/rtw/lib/HANcoder_Olimexino_STM32_F3_RTL.a(timein.obj)
                0x0800d4e8                TimeinClearITPendingBit
 .text.TimeinCaptureInterrupt
                0x0800d584      0x20c ../blockset/rtw/lib/HANcoder_Olimexino_STM32_F3_RTL.a(timein.obj)
 .text.Timein1UpdateInterrupt
                0x0800d790       0x20 ../blockset/rtw/lib/HANcoder_Olimexino_STM32_F3_RTL.a(timein.obj)
                0x0800d790                Timein1UpdateInterrupt
 .text.Timein1CaptureInterrupt
                0x0800d7b0       0x58 ../blockset/rtw/lib/HANcoder_Olimexino_STM32_F3_RTL.a(timein.obj)
                0x0800d7b0                Timein1CaptureInterrupt
 .text.Timein2Interrupt
                0x0800d808       0x7c ../blockset/rtw/lib/HANcoder_Olimexino_STM32_F3_RTL.a(timein.obj)
                0x0800d808                Timein2Interrupt
 .text.Timein3Interrupt
                0x0800d884       0x78 ../blockset/rtw/lib/HANcoder_Olimexino_STM32_F3_RTL.a(timein.obj)
                0x0800d884                Timein3Interrupt
 .text.Timein4Interrupt
                0x0800d8fc       0x78 ../blockset/rtw/lib/HANcoder_Olimexino_STM32_F3_RTL.a(timein.obj)
                0x0800d8fc                Timein4Interrupt
 .text.UsbComIntToUnicode
                0x0800d974       0x34 ../blockset/rtw/lib/HANcoder_Olimexino_STM32_F3_RTL.a(usbcom.obj)
 .text.UsbComInit
                0x0800d9a8       0xe8 ../blockset/rtw/lib/HANcoder_Olimexino_STM32_F3_RTL.a(usbcom.obj)
                0x0800d9a8                UsbComInit
 .text.UsbComTransmit
                0x0800da90       0x44 ../blockset/rtw/lib/HANcoder_Olimexino_STM32_F3_RTL.a(usbcom.obj)
                0x0800da90                UsbComTransmit
 .text.UsbComRegisterDataReceivedCallback
                0x0800dad4        0xc ../blockset/rtw/lib/HANcoder_Olimexino_STM32_F3_RTL.a(usbcom.obj)
                0x0800dad4                UsbComRegisterDataReceivedCallback
 .text.UsbComHandleReception
                0x0800dae0       0x10 ../blockset/rtw/lib/HANcoder_Olimexino_STM32_F3_RTL.a(usbcom.obj)
                0x0800dae0                UsbComHandleReception
 .text.UsbComHandleAsynchXfer
                0x0800daf0       0x98 ../blockset/rtw/lib/HANcoder_Olimexino_STM32_F3_RTL.a(usbcom.obj)
                0x0800daf0                UsbComHandleAsynchXfer
 .text.UsbComConnect
                0x0800db88       0x18 ../blockset/rtw/lib/HANcoder_Olimexino_STM32_F3_RTL.a(usbcom.obj)
                0x0800db88                UsbComConnect
 .text.UsbComGetSerialNum
                0x0800dba0       0x40 ../blockset/rtw/lib/HANcoder_Olimexino_STM32_F3_RTL.a(usbcom.obj)
                0x0800dba0                UsbComGetSerialNum
 .text.UsbComIRQHandler
                0x0800dbe0       0x14 ../blockset/rtw/lib/HANcoder_Olimexino_STM32_F3_RTL.a(usbcom.obj)
                0x0800dbe0                UsbComIRQHandler
 .text.PowerOn  0x0800dbf4       0x30 ../blockset/rtw/lib/HANcoder_Olimexino_STM32_F3_RTL.a(usb_pwr.obj)
                0x0800dbf4                PowerOn
 .text.vApplicationStackOverflowHook
                0x0800dc24       0x40 ../blockset/rtw/lib/HANcoder_Olimexino_STM32_F3_RTL.a(stackOverflowHook.obj)
                0x0800dc24                vApplicationStackOverflowHook
 .text.MacUsbComCallbackDataReceived
                0x0800dc64        0x4 ../blockset/rtw/lib/HANcoder_Olimexino_STM32_F3_RTL.a(mac.obj)
 .text.XcpEventTimerCallback
                0x0800dc68       0x14 ../blockset/rtw/lib/HANcoder_Olimexino_STM32_F3_RTL.a(mac.obj)
 .text.MacUsbComInit
                0x0800dc7c       0x24 ../blockset/rtw/lib/HANcoder_Olimexino_STM32_F3_RTL.a(mac.obj)
                0x0800dc7c                MacUsbComInit
 .text.MacInit  0x0800dca0       0x74 ../blockset/rtw/lib/HANcoder_Olimexino_STM32_F3_RTL.a(mac.obj)
                0x0800dca0                MacInit
 .text.UartInterrupt
                0x0800dd14       0xbc ../blockset/rtw/lib/HANcoder_Olimexino_STM32_F3_RTL.a(uart.obj)
 .text.UartPutByte
                0x0800ddd0       0x54 ../blockset/rtw/lib/HANcoder_Olimexino_STM32_F3_RTL.a(uart.obj)
                0x0800ddd0                UartPutByte
 .text.UartPutBytes
                0x0800de24       0x4c ../blockset/rtw/lib/HANcoder_Olimexino_STM32_F3_RTL.a(uart.obj)
                0x0800de24                UartPutBytes
 .text.Uart1Interrupt
                0x0800de70       0x18 ../blockset/rtw/lib/HANcoder_Olimexino_STM32_F3_RTL.a(uart.obj)
                0x0800de70                Uart1Interrupt
 .text.Uart2Interrupt
                0x0800de88       0x18 ../blockset/rtw/lib/HANcoder_Olimexino_STM32_F3_RTL.a(uart.obj)
                0x0800de88                Uart2Interrupt
 .text.Uart3Interrupt
                0x0800dea0       0x18 ../blockset/rtw/lib/HANcoder_Olimexino_STM32_F3_RTL.a(uart.obj)
                0x0800dea0                Uart3Interrupt
 .text.TimeoutCompareInterrupt
                0x0800deb8      0x114 ../blockset/rtw/lib/HANcoder_Olimexino_STM32_F3_RTL.a(timeout.obj)
 .text.Timeout1UpdateInterrupt
                0x0800dfcc       0x3c ../blockset/rtw/lib/HANcoder_Olimexino_STM32_F3_RTL.a(timeout.obj)
                0x0800dfcc                Timeout1UpdateInterrupt
 .text.Timeout1CaptureInterrupt
                0x0800e008       0x40 ../blockset/rtw/lib/HANcoder_Olimexino_STM32_F3_RTL.a(timeout.obj)
                0x0800e008                Timeout1CaptureInterrupt
 .text.Timeout2Interrupt
                0x0800e048       0x9c ../blockset/rtw/lib/HANcoder_Olimexino_STM32_F3_RTL.a(timeout.obj)
                0x0800e048                Timeout2Interrupt
 .text.Timeout3Interrupt
                0x0800e0e4       0x80 ../blockset/rtw/lib/HANcoder_Olimexino_STM32_F3_RTL.a(timeout.obj)
                0x0800e0e4                Timeout3Interrupt
 .text.Timeout4Interrupt
                0x0800e164       0x94 ../blockset/rtw/lib/HANcoder_Olimexino_STM32_F3_RTL.a(timeout.obj)
                0x0800e164                Timeout4Interrupt
 .text.Reset_Handler
                0x0800e1f8       0x68 ../blockset/rtw/lib/HANcoder_Olimexino_STM32_F3_RTL.a(cstart.obj)
                0x0800e1f8                Reset_Handler
 .text.vListInitialise
                0x0800e260       0x18 ../blockset/rtw/lib/HANcoder_Olimexino_STM32_F3_RTL.a(list.obj)
                0x0800e260                vListInitialise
 .text.vListInitialiseItem
                0x0800e278        0x8 ../blockset/rtw/lib/HANcoder_Olimexino_STM32_F3_RTL.a(list.obj)
                0x0800e278                vListInitialiseItem
 .text.vListInsertEnd
                0x0800e280       0x20 ../blockset/rtw/lib/HANcoder_Olimexino_STM32_F3_RTL.a(list.obj)
                0x0800e280                vListInsertEnd
 .text.vListInsert
                0x0800e2a0       0x34 ../blockset/rtw/lib/HANcoder_Olimexino_STM32_F3_RTL.a(list.obj)
                0x0800e2a0                vListInsert
 .text.uxListRemove
                0x0800e2d4       0x28 ../blockset/rtw/lib/HANcoder_Olimexino_STM32_F3_RTL.a(list.obj)
                0x0800e2d4                uxListRemove
 .text.SystemInit
                0x0800e2fc      0x11c ../blockset/rtw/lib/HANcoder_Olimexino_STM32_F3_RTL.a(system_stm32f30x.obj)
                0x0800e2fc                SystemInit
 .text.TIM_TimeBaseInit
                0x0800e418       0xa8 ../blockset/rtw/lib/HANcoder_Olimexino_STM32_F3_RTL.a(stm32f30x_tim.obj)
                0x0800e418                TIM_TimeBaseInit
 .text.TIM_TimeBaseStructInit
                0x0800e4c0       0x14 ../blockset/rtw/lib/HANcoder_Olimexino_STM32_F3_RTL.a(stm32f30x_tim.obj)
                0x0800e4c0                TIM_TimeBaseStructInit
 .text.TIM_SetCounter
                0x0800e4d4        0x4 ../blockset/rtw/lib/HANcoder_Olimexino_STM32_F3_RTL.a(stm32f30x_tim.obj)
                0x0800e4d4                TIM_SetCounter
 .text.TIM_GetCounter
                0x0800e4d8        0x4 ../blockset/rtw/lib/HANcoder_Olimexino_STM32_F3_RTL.a(stm32f30x_tim.obj)
                0x0800e4d8                TIM_GetCounter
 .text.TIM_ARRPreloadConfig
                0x0800e4dc       0x1c ../blockset/rtw/lib/HANcoder_Olimexino_STM32_F3_RTL.a(stm32f30x_tim.obj)
                0x0800e4dc                TIM_ARRPreloadConfig
 .text.TIM_Cmd  0x0800e4f8       0x1c ../blockset/rtw/lib/HANcoder_Olimexino_STM32_F3_RTL.a(stm32f30x_tim.obj)
                0x0800e4f8                TIM_Cmd
 .text.TIM_OC1Init
                0x0800e514       0x88 ../blockset/rtw/lib/HANcoder_Olimexino_STM32_F3_RTL.a(stm32f30x_tim.obj)
                0x0800e514                TIM_OC1Init
 .text.TIM_OC2Init
                0x0800e59c       0x74 ../blockset/rtw/lib/HANcoder_Olimexino_STM32_F3_RTL.a(stm32f30x_tim.obj)
                0x0800e59c                TIM_OC2Init
 .text.TIM_OC3Init
                0x0800e610       0x70 ../blockset/rtw/lib/HANcoder_Olimexino_STM32_F3_RTL.a(stm32f30x_tim.obj)
                0x0800e610                TIM_OC3Init
 .text.TIM_OC4Init
                0x0800e680       0x58 ../blockset/rtw/lib/HANcoder_Olimexino_STM32_F3_RTL.a(stm32f30x_tim.obj)
                0x0800e680                TIM_OC4Init
 .text.TIM_OCStructInit
                0x0800e6d8       0x14 ../blockset/rtw/lib/HANcoder_Olimexino_STM32_F3_RTL.a(stm32f30x_tim.obj)
                0x0800e6d8                TIM_OCStructInit
 .text.TIM_OC1PreloadConfig
                0x0800e6ec        0xc ../blockset/rtw/lib/HANcoder_Olimexino_STM32_F3_RTL.a(stm32f30x_tim.obj)
                0x0800e6ec                TIM_OC1PreloadConfig
 .text.TIM_OC2PreloadConfig
                0x0800e6f8       0x10 ../blockset/rtw/lib/HANcoder_Olimexino_STM32_F3_RTL.a(stm32f30x_tim.obj)
                0x0800e6f8                TIM_OC2PreloadConfig
 .text.TIM_OC3PreloadConfig
                0x0800e708        0xc ../blockset/rtw/lib/HANcoder_Olimexino_STM32_F3_RTL.a(stm32f30x_tim.obj)
                0x0800e708                TIM_OC3PreloadConfig
 .text.TIM_OC4PreloadConfig
                0x0800e714       0x10 ../blockset/rtw/lib/HANcoder_Olimexino_STM32_F3_RTL.a(stm32f30x_tim.obj)
                0x0800e714                TIM_OC4PreloadConfig
 .text.TIM_GetCapture1
                0x0800e724        0x4 ../blockset/rtw/lib/HANcoder_Olimexino_STM32_F3_RTL.a(stm32f30x_tim.obj)
                0x0800e724                TIM_GetCapture1
 .text.TIM_GetCapture2
                0x0800e728        0x4 ../blockset/rtw/lib/HANcoder_Olimexino_STM32_F3_RTL.a(stm32f30x_tim.obj)
                0x0800e728                TIM_GetCapture2
 .text.TIM_GetCapture3
                0x0800e72c        0x4 ../blockset/rtw/lib/HANcoder_Olimexino_STM32_F3_RTL.a(stm32f30x_tim.obj)
                0x0800e72c                TIM_GetCapture3
 .text.TIM_GetCapture4
                0x0800e730        0x4 ../blockset/rtw/lib/HANcoder_Olimexino_STM32_F3_RTL.a(stm32f30x_tim.obj)
                0x0800e730                TIM_GetCapture4
 .text.TIM_CtrlPWMOutputs
                0x0800e734       0x14 ../blockset/rtw/lib/HANcoder_Olimexino_STM32_F3_RTL.a(stm32f30x_tim.obj)
                0x0800e734                TIM_CtrlPWMOutputs
 .text.TIM_GetITStatus
                0x0800e748       0x14 ../blockset/rtw/lib/HANcoder_Olimexino_STM32_F3_RTL.a(stm32f30x_tim.obj)
                0x0800e748                TIM_GetITStatus
 .text.TIM_DMACmd
                0x0800e75c       0x18 ../blockset/rtw/lib/HANcoder_Olimexino_STM32_F3_RTL.a(stm32f30x_tim.obj)
                0x0800e75c                TIM_DMACmd
 .text.TIM_ITConfig
                0x0800e774        0x4 ../blockset/rtw/lib/HANcoder_Olimexino_STM32_F3_RTL.a(stm32f30x_tim.obj)
                0x0800e774                TIM_ITConfig
 .text.USART_SendData
                0x0800e778        0x8 ../blockset/rtw/lib/HANcoder_Olimexino_STM32_F3_RTL.a(stm32f30x_usart.obj)
                0x0800e778                USART_SendData
 .text.USART_ReceiveData
                0x0800e780        0x8 ../blockset/rtw/lib/HANcoder_Olimexino_STM32_F3_RTL.a(stm32f30x_usart.obj)
                0x0800e780                USART_ReceiveData
 .text.USART_ITConfig
                0x0800e788       0x38 ../blockset/rtw/lib/HANcoder_Olimexino_STM32_F3_RTL.a(stm32f30x_usart.obj)
                0x0800e788                USART_ITConfig
 .text.USART_GetITStatus
                0x0800e7c0       0x44 ../blockset/rtw/lib/HANcoder_Olimexino_STM32_F3_RTL.a(stm32f30x_usart.obj)
                0x0800e7c0                USART_GetITStatus
 .text.USB_Init
                0x0800e804       0x38 ../blockset/rtw/lib/HANcoder_Olimexino_STM32_F3_RTL.a(usb_init.obj)
                0x0800e804                USB_Init
 .text.UserToPMABufferCopy
                0x0800e83c       0x28 ../blockset/rtw/lib/HANcoder_Olimexino_STM32_F3_RTL.a(usb_mem.obj)
                0x0800e83c                UserToPMABufferCopy
 .text.PMAToUserBufferCopy
                0x0800e864       0x20 ../blockset/rtw/lib/HANcoder_Olimexino_STM32_F3_RTL.a(usb_mem.obj)
                0x0800e864                PMAToUserBufferCopy
 .text.SetBTABLE
                0x0800e884       0x10 ../blockset/rtw/lib/HANcoder_Olimexino_STM32_F3_RTL.a(usb_regs.obj)
                0x0800e884                SetBTABLE
 .text.SetEPType
                0x0800e894       0x1c ../blockset/rtw/lib/HANcoder_Olimexino_STM32_F3_RTL.a(usb_regs.obj)
                0x0800e894                SetEPType
 .text.SetEPTxStatus
                0x0800e8b0       0x34 ../blockset/rtw/lib/HANcoder_Olimexino_STM32_F3_RTL.a(usb_regs.obj)
                0x0800e8b0                SetEPTxStatus
 .text.SetEPRxStatus
                0x0800e8e4       0x34 ../blockset/rtw/lib/HANcoder_Olimexino_STM32_F3_RTL.a(usb_regs.obj)
                0x0800e8e4                SetEPRxStatus
 .text.SetEPTxValid
                0x0800e918       0x28 ../blockset/rtw/lib/HANcoder_Olimexino_STM32_F3_RTL.a(usb_regs.obj)
                0x0800e918                SetEPTxValid
 .text.SetEPRxValid
                0x0800e940       0x28 ../blockset/rtw/lib/HANcoder_Olimexino_STM32_F3_RTL.a(usb_regs.obj)
                0x0800e940                SetEPRxValid
 .text.ClearEPDoubleBuff
                0x0800e968       0x20 ../blockset/rtw/lib/HANcoder_Olimexino_STM32_F3_RTL.a(usb_regs.obj)
                0x0800e968                ClearEPDoubleBuff
 .text.Clear_Status_Out
                0x0800e988        0x4 ../blockset/rtw/lib/HANcoder_Olimexino_STM32_F3_RTL.a(usb_regs.obj)
                0x0800e988                Clear_Status_Out
 .text.ClearDTOG_RX
                0x0800e98c       0x24 ../blockset/rtw/lib/HANcoder_Olimexino_STM32_F3_RTL.a(usb_regs.obj)
                0x0800e98c                ClearDTOG_RX
 .text.ClearDTOG_TX
                0x0800e9b0       0x24 ../blockset/rtw/lib/HANcoder_Olimexino_STM32_F3_RTL.a(usb_regs.obj)
                0x0800e9b0                ClearDTOG_TX
 .text.SetEPTxCount
                0x0800e9d4       0x1c ../blockset/rtw/lib/HANcoder_Olimexino_STM32_F3_RTL.a(usb_regs.obj)
                0x0800e9d4                SetEPTxCount
 .text.SetEPRxCount
                0x0800e9f0       0x44 ../blockset/rtw/lib/HANcoder_Olimexino_STM32_F3_RTL.a(usb_regs.obj)
                0x0800e9f0                SetEPRxCount
 .text.SetEPDblBuf0Addr
                0x0800ea34       0x20 ../blockset/rtw/lib/HANcoder_Olimexino_STM32_F3_RTL.a(usb_regs.obj)
                0x0800ea34                SetEPDblBuf0Addr
 .text.SetEPTxAddr
                0x0800ea54        0x4 ../blockset/rtw/lib/HANcoder_Olimexino_STM32_F3_RTL.a(usb_regs.obj)
                0x0800ea54                SetEPTxAddr
 .text.SetEPDblBuf1Addr
                0x0800ea58       0x20 ../blockset/rtw/lib/HANcoder_Olimexino_STM32_F3_RTL.a(usb_regs.obj)
                0x0800ea58                SetEPDblBuf1Addr
 .text.SetEPRxAddr
                0x0800ea78        0x4 ../blockset/rtw/lib/HANcoder_Olimexino_STM32_F3_RTL.a(usb_regs.obj)
                0x0800ea78                SetEPRxAddr
 .text.GetEPDblBuf0Addr
                0x0800ea7c       0x1c ../blockset/rtw/lib/HANcoder_Olimexino_STM32_F3_RTL.a(usb_regs.obj)
                0x0800ea7c                GetEPDblBuf0Addr
 .text.GetEPTxAddr
                0x0800ea98        0x4 ../blockset/rtw/lib/HANcoder_Olimexino_STM32_F3_RTL.a(usb_regs.obj)
                0x0800ea98                GetEPTxAddr
 .text.GetEPDblBuf1Addr
                0x0800ea9c       0x1c ../blockset/rtw/lib/HANcoder_Olimexino_STM32_F3_RTL.a(usb_regs.obj)
                0x0800ea9c                GetEPDblBuf1Addr
 .text.GetEPRxAddr
                0x0800eab8        0x4 ../blockset/rtw/lib/HANcoder_Olimexino_STM32_F3_RTL.a(usb_regs.obj)
                0x0800eab8                GetEPRxAddr
 .text.GetEPDblBuf1Count
                0x0800eabc       0x20 ../blockset/rtw/lib/HANcoder_Olimexino_STM32_F3_RTL.a(usb_regs.obj)
                0x0800eabc                GetEPDblBuf1Count
 .text.GetEPRxCount
                0x0800eadc        0x4 ../blockset/rtw/lib/HANcoder_Olimexino_STM32_F3_RTL.a(usb_regs.obj)
                0x0800eadc                GetEPRxCount
 .text.ByteSwap
                0x0800eae0        0xc ../blockset/rtw/lib/HANcoder_Olimexino_STM32_F3_RTL.a(usb_regs.obj)
                0x0800eae0                ByteSwap
 .text.USB_Istr
                0x0800eaec       0x74 ../blockset/rtw/lib/HANcoder_Olimexino_STM32_F3_RTL.a(usb_istr.obj)
                0x0800eaec                USB_Istr
 .text.Virtual_Com_Port_SetConfiguration
                0x0800eb60       0x18 ../blockset/rtw/lib/HANcoder_Olimexino_STM32_F3_RTL.a(usb_prop.obj)
                0x0800eb60                Virtual_Com_Port_SetConfiguration
 .text.Virtual_Com_Port_SetDeviceAddress
                0x0800eb78        0xc ../blockset/rtw/lib/HANcoder_Olimexino_STM32_F3_RTL.a(usb_prop.obj)
                0x0800eb78                Virtual_Com_Port_SetDeviceAddress
 .text.Virtual_Com_Port_Status_In
                0x0800eb84       0x14 ../blockset/rtw/lib/HANcoder_Olimexino_STM32_F3_RTL.a(usb_prop.obj)
                0x0800eb84                Virtual_Com_Port_Status_In
 .text.Virtual_Com_Port_Status_Out
                0x0800eb98        0x4 ../blockset/rtw/lib/HANcoder_Olimexino_STM32_F3_RTL.a(usb_prop.obj)
                0x0800eb98                Virtual_Com_Port_Status_Out
 .text.Virtual_Com_Port_Data_Setup
                0x0800eb9c       0x5c ../blockset/rtw/lib/HANcoder_Olimexino_STM32_F3_RTL.a(usb_prop.obj)
                0x0800eb9c                Virtual_Com_Port_Data_Setup
 .text.Virtual_Com_Port_NoData_Setup
                0x0800ebf8       0x24 ../blockset/rtw/lib/HANcoder_Olimexino_STM32_F3_RTL.a(usb_prop.obj)
                0x0800ebf8                Virtual_Com_Port_NoData_Setup
 .text.Virtual_Com_Port_Get_Interface_Setting
                0x0800ec1c       0x10 ../blockset/rtw/lib/HANcoder_Olimexino_STM32_F3_RTL.a(usb_prop.obj)
                0x0800ec1c                Virtual_Com_Port_Get_Interface_Setting
 .text.Virtual_Com_Port_SetLineCoding
                0x0800ec2c       0x18 ../blockset/rtw/lib/HANcoder_Olimexino_STM32_F3_RTL.a(usb_prop.obj)
                0x0800ec2c                Virtual_Com_Port_SetLineCoding
 .text.Virtual_Com_Port_GetLineCoding
                0x0800ec44        0x4 ../blockset/rtw/lib/HANcoder_Olimexino_STM32_F3_RTL.a(usb_prop.obj)
                0x0800ec44                Virtual_Com_Port_GetLineCoding
 .text.Virtual_Com_Port_init
                0x0800ec48       0x24 ../blockset/rtw/lib/HANcoder_Olimexino_STM32_F3_RTL.a(usb_prop.obj)
                0x0800ec48                Virtual_Com_Port_init
 .text.Virtual_Com_Port_Reset
                0x0800ec6c       0xe0 ../blockset/rtw/lib/HANcoder_Olimexino_STM32_F3_RTL.a(usb_prop.obj)
                0x0800ec6c                Virtual_Com_Port_Reset
 .text.Virtual_Com_Port_GetDeviceDescriptor
                0x0800ed4c        0xc ../blockset/rtw/lib/HANcoder_Olimexino_STM32_F3_RTL.a(usb_prop.obj)
                0x0800ed4c                Virtual_Com_Port_GetDeviceDescriptor
 .text.Virtual_Com_Port_GetConfigDescriptor
                0x0800ed58        0xc ../blockset/rtw/lib/HANcoder_Olimexino_STM32_F3_RTL.a(usb_prop.obj)
                0x0800ed58                Virtual_Com_Port_GetConfigDescriptor
 .text.Virtual_Com_Port_GetStringDescriptor
                0x0800ed64       0x20 ../blockset/rtw/lib/HANcoder_Olimexino_STM32_F3_RTL.a(usb_prop.obj)
                0x0800ed64                Virtual_Com_Port_GetStringDescriptor
 .text.Standard_GetConfiguration
                0x0800ed84       0x28 ../blockset/rtw/lib/HANcoder_Olimexino_STM32_F3_RTL.a(usb_core.obj)
                0x0800ed84                Standard_GetConfiguration
 .text.Standard_GetInterface
                0x0800edac       0x28 ../blockset/rtw/lib/HANcoder_Olimexino_STM32_F3_RTL.a(usb_core.obj)
                0x0800edac                Standard_GetInterface
 .text.Standard_GetStatus
                0x0800edd4       0x8c ../blockset/rtw/lib/HANcoder_Olimexino_STM32_F3_RTL.a(usb_core.obj)
                0x0800edd4                Standard_GetStatus
 .text.DataStageIn
                0x0800ee60       0xb0 ../blockset/rtw/lib/HANcoder_Olimexino_STM32_F3_RTL.a(usb_core.obj)
 .text.Standard_SetConfiguration
                0x0800ef10       0x3c ../blockset/rtw/lib/HANcoder_Olimexino_STM32_F3_RTL.a(usb_core.obj)
                0x0800ef10                Standard_SetConfiguration
 .text.Standard_SetInterface
                0x0800ef4c       0x50 ../blockset/rtw/lib/HANcoder_Olimexino_STM32_F3_RTL.a(usb_core.obj)
                0x0800ef4c                Standard_SetInterface
 .text.Standard_ClearFeature
                0x0800ef9c       0xd8 ../blockset/rtw/lib/HANcoder_Olimexino_STM32_F3_RTL.a(usb_core.obj)
                0x0800ef9c                Standard_ClearFeature
 .text.Standard_SetEndPointFeature
                0x0800f074       0x98 ../blockset/rtw/lib/HANcoder_Olimexino_STM32_F3_RTL.a(usb_core.obj)
                0x0800f074                Standard_SetEndPointFeature
 .text.Standard_GetDescriptorData
                0x0800f10c       0x1c ../blockset/rtw/lib/HANcoder_Olimexino_STM32_F3_RTL.a(usb_core.obj)
                0x0800f10c                Standard_GetDescriptorData
 .text.Post0_Process
                0x0800f128       0x44 ../blockset/rtw/lib/HANcoder_Olimexino_STM32_F3_RTL.a(usb_core.obj)
                0x0800f128                Post0_Process
 .text.Setup0_Process
                0x0800f16c      0x36c ../blockset/rtw/lib/HANcoder_Olimexino_STM32_F3_RTL.a(usb_core.obj)
                0x0800f16c                Setup0_Process
 .text.Out0_Process
                0x0800f4d8       0xdc ../blockset/rtw/lib/HANcoder_Olimexino_STM32_F3_RTL.a(usb_core.obj)
                0x0800f4d8                Out0_Process
 .text.In0_Process
                0x0800f5b4       0xa8 ../blockset/rtw/lib/HANcoder_Olimexino_STM32_F3_RTL.a(usb_core.obj)
                0x0800f5b4                In0_Process
 .text.SetDeviceAddress
                0x0800f65c       0x40 ../blockset/rtw/lib/HANcoder_Olimexino_STM32_F3_RTL.a(usb_core.obj)
                0x0800f65c                SetDeviceAddress
 .text.NOP_Process
                0x0800f69c        0x4 ../blockset/rtw/lib/HANcoder_Olimexino_STM32_F3_RTL.a(usb_core.obj)
                0x0800f69c                NOP_Process
 .text.CTR_LP   0x0800f6a0      0x180 ../blockset/rtw/lib/HANcoder_Olimexino_STM32_F3_RTL.a(usb_int.obj)
                0x0800f6a0                CTR_LP
 .text.USB_SIL_Init
                0x0800f820       0x28 ../blockset/rtw/lib/HANcoder_Olimexino_STM32_F3_RTL.a(usb_sil.obj)
                0x0800f820                USB_SIL_Init
 .text.USB_SIL_Read
                0x0800f848       0x24 ../blockset/rtw/lib/HANcoder_Olimexino_STM32_F3_RTL.a(usb_sil.obj)
                0x0800f848                USB_SIL_Read
 .text.EP1_IN_Callback
                0x0800f86c       0x68 ../blockset/rtw/lib/HANcoder_Olimexino_STM32_F3_RTL.a(usb_endp.obj)
                0x0800f86c                EP1_IN_Callback
 .text.EP3_OUT_Callback
                0x0800f8d4       0x24 ../blockset/rtw/lib/HANcoder_Olimexino_STM32_F3_RTL.a(usb_endp.obj)
                0x0800f8d4                EP3_OUT_Callback
 .text.SOF_Callback
                0x0800f8f8       0x2c ../blockset/rtw/lib/HANcoder_Olimexino_STM32_F3_RTL.a(usb_endp.obj)
                0x0800f8f8                SOF_Callback
 *fill*         0x0800f924        0x4 
 .text.floor    0x0800f928       0xf8 c:/program files (x86)/gnu arm embedded toolchain/10 2021.10/bin/../lib/gcc/arm-none-eabi/10.3.1/../../../../arm-none-eabi/lib/thumb/v7e-m+fp/softfp\libm.a(lib_a-s_floor.o)
                0x0800f928                floor
 .text          0x0800fa20      0x378 c:/program files (x86)/gnu arm embedded toolchain/10 2021.10/bin/../lib/gcc/arm-none-eabi/10.3.1/thumb/v7e-m+fp/softfp\libgcc.a(_arm_addsubdf3.o)
                0x0800fa20                __aeabi_drsub
                0x0800fa28                __aeabi_dsub
                0x0800fa28                __subdf3
                0x0800fa2c                __aeabi_dadd
                0x0800fa2c                __adddf3
                0x0800fca4                __floatunsidf
                0x0800fca4                __aeabi_ui2d
                0x0800fcc4                __floatsidf
                0x0800fcc4                __aeabi_i2d
                0x0800fce8                __aeabi_f2d
                0x0800fce8                __extendsfdf2
                0x0800fd2c                __floatundidf
                0x0800fd2c                __aeabi_ul2d
                0x0800fd3c                __floatdidf
                0x0800fd3c                __aeabi_l2d
 .text          0x0800fd98      0x424 c:/program files (x86)/gnu arm embedded toolchain/10 2021.10/bin/../lib/gcc/arm-none-eabi/10.3.1/thumb/v7e-m+fp/softfp\libgcc.a(_arm_muldivdf3.o)
                0x0800fd98                __aeabi_dmul
                0x0800fd98                __muldf3
                0x0800ffec                __divdf3
                0x0800ffec                __aeabi_ddiv
 .text          0x080101bc      0x110 c:/program files (x86)/gnu arm embedded toolchain/10 2021.10/bin/../lib/gcc/arm-none-eabi/10.3.1/thumb/v7e-m+fp/softfp\libgcc.a(_arm_cmpdf2.o)
                0x080101bc                __gtdf2
                0x080101bc                __gedf2
                0x080101c4                __ltdf2
                0x080101c4                __ledf2
                0x080101cc                __nedf2
                0x080101cc                __eqdf2
                0x080101cc                __cmpdf2
                0x08010248                __aeabi_cdrcmple
                0x08010258                __aeabi_cdcmpeq
                0x08010258                __aeabi_cdcmple
                0x08010268                __aeabi_dcmpeq
                0x0801027c                __aeabi_dcmplt
                0x08010290                __aeabi_dcmple
                0x080102a4                __aeabi_dcmpge
                0x080102b8                __aeabi_dcmpgt
 .text          0x080102cc       0x50 c:/program files (x86)/gnu arm embedded toolchain/10 2021.10/bin/../lib/gcc/arm-none-eabi/10.3.1/thumb/v7e-m+fp/softfp\libgcc.a(_arm_fixdfsi.o)
                0x080102cc                __aeabi_d2iz
                0x080102cc                __fixdfsi
 .text          0x0801031c       0x40 c:/program files (x86)/gnu arm embedded toolchain/10 2021.10/bin/../lib/gcc/arm-none-eabi/10.3.1/thumb/v7e-m+fp/softfp\libgcc.a(_arm_fixunsdfsi.o)
                0x0801031c                __aeabi_d2uiz
                0x0801031c                __fixunsdfsi
 .text          0x0801035c      0x134 c:/program files (x86)/gnu arm embedded toolchain/10 2021.10/bin/../lib/gcc/arm-none-eabi/10.3.1/../../../../arm-none-eabi/lib/thumb/v7e-m+fp/softfp\libg.a(lib_a-memcpy.o)
                0x0801035c                memcpy
 .text.memset   0x08010490       0xa4 c:/program files (x86)/gnu arm embedded toolchain/10 2021.10/bin/../lib/gcc/arm-none-eabi/10.3.1/../../../../arm-none-eabi/lib/thumb/v7e-m+fp/softfp\libg.a(lib_a-memset.o)
                0x08010490                memset
 *fill*         0x08010534        0xc 
 .text          0x08010540       0xdc c:/program files (x86)/gnu arm embedded toolchain/10 2021.10/bin/../lib/gcc/arm-none-eabi/10.3.1/../../../../arm-none-eabi/lib/thumb/v7e-m+fp/softfp\libg.a(lib_a-strlen.o)
                0x08010540                strlen
 *(.plt)
 *(.gnu.warning)
 *(.glue_7t)
 .glue_7t       0x0801061c        0x0 linker stubs
 *(.glue_7)
 .glue_7        0x0801061c        0x0 linker stubs
 *(.vfp11_veneer)
 .vfp11_veneer  0x0801061c        0x0 linker stubs
 *(.ARM.extab* .gnu.linkonce.armextab.*)
 *(.gcc_except_table)

.v4_bx          0x0801061c        0x0
 .v4_bx         0x0801061c        0x0 linker stubs

.iplt           0x0801061c        0x0
 .iplt          0x0801061c        0x0 model.obj

.eh_frame_hdr
 *(.eh_frame_hdr)
 *(.eh_frame_entry .eh_frame_entry.*)

.eh_frame
 *(.eh_frame)
 *(.eh_frame.*)
                [!provide]                PROVIDE (__exidx_start = .)

.ARM.exidx
 *(.ARM.exidx* .gnu.linkonce.armexidx.*)
                [!provide]                PROVIDE (__exidx_end = .)

.constdata      0x08004000      0xaef
 *(.rodata .rodata.* .gnu.linkonce.r.*)
 .rodata.rtConstP
                0x08004000       0x10 HANcoder_Olimexino_F3_ACC_data.obj
                0x08004000                rtConstP
 .rodata.HANcoder_Olimexino_F3_ACC_step.str1.4
                0x08004010        0xc HANcoder_Olimexino_F3_ACC.obj
 .rodata.HANcoder_Olimexino_F3_ACC_initialize.str1.4
                0x0800401c       0x1c HANcoder_Olimexino_F3_ACC.obj
 .rodata.str1.4
                0x08004038       0x12 ../blockset/rtw/lib/HANcoder_Olimexino_STM32_F3_RTL.a(app.obj)
                                 0x20 (size before relaxing)
 *fill*         0x0800404a        0x2 
 .rodata.pinMapping
                0x0800404c      0x140 ../blockset/rtw/lib/HANcoder_Olimexino_STM32_F3_RTL.a(anin.obj)
 .rodata.str1.4
                0x0800418c       0x4d ../blockset/rtw/lib/HANcoder_Olimexino_STM32_F3_RTL.a(can.obj)
 *fill*         0x080041d9        0x3 
 .rodata.canTiming
                0x080041dc       0x3f ../blockset/rtw/lib/HANcoder_Olimexino_STM32_F3_RTL.a(can.obj)
 *fill*         0x0800421b        0x1 
 .rodata.pinMapping
                0x0800421c      0x180 ../blockset/rtw/lib/HANcoder_Olimexino_STM32_F3_RTL.a(digin.obj)
 .rodata.str1.4
                0x0800439c        0xb ../blockset/rtw/lib/HANcoder_Olimexino_STM32_F3_RTL.a(os.obj)
 *fill*         0x080043a7        0x1 
 .rodata.str1.4
                0x080043a8       0x3b ../blockset/rtw/lib/HANcoder_Olimexino_STM32_F3_RTL.a(queue.obj)
 *fill*         0x080043e3        0x1 
 .rodata.str1.4
                0x080043e4       0x41 ../blockset/rtw/lib/HANcoder_Olimexino_STM32_F3_RTL.a(tasks.obj)
 *fill*         0x08004425        0x3 
 .rodata.str1.4
                0x08004428       0x44 ../blockset/rtw/lib/HANcoder_Olimexino_STM32_F3_RTL.a(timers.obj)
 .rodata.str1.4
                0x0800446c       0x50 ../blockset/rtw/lib/HANcoder_Olimexino_STM32_F3_RTL.a(port.obj)
 .rodata.str1.4
                0x080044bc       0x4d ../blockset/rtw/lib/HANcoder_Olimexino_STM32_F3_RTL.a(heap_4.obj)
 *fill*         0x08004509        0x3 
 .rodata.timerMapping
                0x0800450c       0xa0 ../blockset/rtw/lib/HANcoder_Olimexino_STM32_F3_RTL.a(quadencoder.obj)
 .rodata.invertedPinMapping
                0x080045ac       0x30 ../blockset/rtw/lib/HANcoder_Olimexino_STM32_F3_RTL.a(pwmout.obj)
 .rodata.pinMapping
                0x080045dc      0x100 ../blockset/rtw/lib/HANcoder_Olimexino_STM32_F3_RTL.a(pwmout.obj)
 .rodata.moduleMapping
                0x080046dc       0x50 ../blockset/rtw/lib/HANcoder_Olimexino_STM32_F3_RTL.a(pwmout.obj)
 .rodata.pinMapping
                0x0800472c      0x100 ../blockset/rtw/lib/HANcoder_Olimexino_STM32_F3_RTL.a(timein.obj)
 .rodata.moduleMapping
                0x0800482c       0x30 ../blockset/rtw/lib/HANcoder_Olimexino_STM32_F3_RTL.a(timein.obj)
 .rodata.str1.4
                0x0800485c        0x8 ../blockset/rtw/lib/HANcoder_Olimexino_STM32_F3_RTL.a(mac.obj)
 .rodata.channelMapping
                0x08004864       0x6c ../blockset/rtw/lib/HANcoder_Olimexino_STM32_F3_RTL.a(uart.obj)
 .rodata.pinMapping
                0x080048d0      0x118 ../blockset/rtw/lib/HANcoder_Olimexino_STM32_F3_RTL.a(timeout.obj)
 .rodata.moduleMapping
                0x080049e8       0x50 ../blockset/rtw/lib/HANcoder_Olimexino_STM32_F3_RTL.a(timeout.obj)
 .rodata.Virtual_Com_Port_StringVendor
                0x08004a38       0x26 ../blockset/rtw/lib/HANcoder_Olimexino_STM32_F3_RTL.a(usb_desc.obj)
                0x08004a38                Virtual_Com_Port_StringVendor
 *fill*         0x08004a5e        0x2 
 .rodata.Virtual_Com_Port_DeviceDescriptor
                0x08004a60       0x12 ../blockset/rtw/lib/HANcoder_Olimexino_STM32_F3_RTL.a(usb_desc.obj)
                0x08004a60                Virtual_Com_Port_DeviceDescriptor
 *fill*         0x08004a72        0x2 
 .rodata.Virtual_Com_Port_StringLangID
                0x08004a74        0x4 ../blockset/rtw/lib/HANcoder_Olimexino_STM32_F3_RTL.a(usb_desc.obj)
                0x08004a74                Virtual_Com_Port_StringLangID
 .rodata.Virtual_Com_Port_StringProduct
                0x08004a78       0x32 ../blockset/rtw/lib/HANcoder_Olimexino_STM32_F3_RTL.a(usb_desc.obj)
                0x08004a78                Virtual_Com_Port_StringProduct
 *fill*         0x08004aaa        0x2 
 .rodata.Virtual_Com_Port_ConfigDescriptor
                0x08004aac       0x43 ../blockset/rtw/lib/HANcoder_Olimexino_STM32_F3_RTL.a(usb_desc.obj)
                0x08004aac                Virtual_Com_Port_ConfigDescriptor

.rel.dyn        0x08004af0        0x0
 .rel.iplt      0x08004af0        0x0 model.obj

.rodata         0x0801061c        0x4
                0x0801061c                . = ALIGN (0x4)
 *(.init)
                0x0801061c                . = ALIGN (0x4)
                0x0801061c                __preinit_array_start = .
 *(.preinit_array)
                0x0801061c                __preinit_array_end = .
                0x0801061c                . = ALIGN (0x4)
                0x0801061c                __init_array_start = .
 *(SORT_BY_NAME(.init_array.*))
 *(.init_array)
                0x0801061c                __init_array_end = .
                0x0801061c                . = ALIGN (0x4)
 *(.fini)
                0x0801061c                . = ALIGN (0x4)
                0x0801061c                __fini_array_start = .
 *(.fini_array)
 *(SORT_BY_NAME(.fini_array.*))
                0x0801061c                __fini_array_end = .
                0x0801061c                . = ALIGN (0x4)
 *crtbegin.o(.ctors)
 *(EXCLUDE_FILE(*crtend.o) .ctors)
 *(SORT_BY_NAME(.ctors.*))
 *crtend.o(.ctors)
                0x0801061c                . = ALIGN (0x4)
 *crtbegin.o(.dtors)
 *(EXCLUDE_FILE(*crtend.o) .dtors)
 *(SORT_BY_NAME(.dtors.*))
 *crtend.o(.dtors)
                0x08010620                . = ALIGN (0x8)
 *fill*         0x0801061c        0x4 
 *(.rom)
 *(.rom.b .bss.rom)
                0x08010620                _etext = .

.data           0x20000000      0x150 load address 0x08010620
                0x20000000                _data = .
 *(.jcr)
 *(.got.plt)
 *(.got)
 *(.shdata)
 *(vtable)
 *(.data .data.* .gnu.linkonce.d.*)
 .data.eventChannel
                0x20000000       0x15 XcpTargetSpecific.obj
                0x20000000                eventChannel
 *fill*         0x20000015        0x3 
 .data.uniqueIdLength
                0x20000018        0x4 XcpTargetSpecific.obj
                0x20000018                uniqueIdLength
 .data.uniqueIdString
                0x2000001c       0x36 XcpTargetSpecific.obj
                0x2000001c                uniqueIdString
 *fill*         0x20000052        0x2 
 .data.appCtrlTaskPeriodTicks
                0x20000054        0x4 ../blockset/rtw/lib/HANcoder_Olimexino_STM32_F3_RTL.a(app.obj)
 .data.appCtrlTaskStackSize
                0x20000058        0x2 ../blockset/rtw/lib/HANcoder_Olimexino_STM32_F3_RTL.a(app.obj)
 *fill*         0x2000005a        0x2 
 .data.ADCconversionTaskPeriodTicks
                0x2000005c        0x4 ../blockset/rtw/lib/HANcoder_Olimexino_STM32_F3_RTL.a(anin.obj)
 .data.uxCriticalNesting
                0x20000060        0x4 ../blockset/rtw/lib/HANcoder_Olimexino_STM32_F3_RTL.a(port.obj)
 .data.SystemCoreClock
                0x20000064        0x4 ../blockset/rtw/lib/HANcoder_Olimexino_STM32_F3_RTL.a(system_stm32f30x.obj)
                0x20000064                SystemCoreClock
 .data.Virtual_Com_Port_StringSerial
                0x20000068       0x1a ../blockset/rtw/lib/HANcoder_Olimexino_STM32_F3_RTL.a(usb_desc.obj)
                0x20000068                Virtual_Com_Port_StringSerial
 *fill*         0x20000082        0x2 
 .data.pEpInt_IN
                0x20000084       0x1c ../blockset/rtw/lib/HANcoder_Olimexino_STM32_F3_RTL.a(usb_istr.obj)
                0x20000084                pEpInt_IN
 .data.pEpInt_OUT
                0x200000a0       0x1c ../blockset/rtw/lib/HANcoder_Olimexino_STM32_F3_RTL.a(usb_istr.obj)
                0x200000a0                pEpInt_OUT
 .data.Config_Descriptor
                0x200000bc        0x8 ../blockset/rtw/lib/HANcoder_Olimexino_STM32_F3_RTL.a(usb_prop.obj)
                0x200000bc                Config_Descriptor
 .data.Device_Property
                0x200000c4       0x30 ../blockset/rtw/lib/HANcoder_Olimexino_STM32_F3_RTL.a(usb_prop.obj)
                0x200000c4                Device_Property
 .data.User_Standard_Requests
                0x200000f4       0x24 ../blockset/rtw/lib/HANcoder_Olimexino_STM32_F3_RTL.a(usb_prop.obj)
                0x200000f4                User_Standard_Requests
 .data.Device_Descriptor
                0x20000118        0x8 ../blockset/rtw/lib/HANcoder_Olimexino_STM32_F3_RTL.a(usb_prop.obj)
                0x20000118                Device_Descriptor
 .data.String_Descriptor
                0x20000120       0x20 ../blockset/rtw/lib/HANcoder_Olimexino_STM32_F3_RTL.a(usb_prop.obj)
                0x20000120                String_Descriptor
 .data.linecoding
                0x20000140        0x8 ../blockset/rtw/lib/HANcoder_Olimexino_STM32_F3_RTL.a(usb_prop.obj)
                0x20000140                linecoding
 .data.Device_Table
                0x20000148        0x2 ../blockset/rtw/lib/HANcoder_Olimexino_STM32_F3_RTL.a(usb_prop.obj)
                0x20000148                Device_Table
                0x20000150                . = ALIGN (0x8)
 *fill*         0x2000014a        0x6 
 *(.ram)
                0x20000150                . = ALIGN (0x8)
                0x20000150                _edata = .

.igot.plt       0x20000150        0x0 load address 0x08010770
 .igot.plt      0x20000150        0x0 model.obj

.bss            0x20000150     0x4200 load address 0x08010770
                0x20000150                _bss = .
 *(.shbss)
 *(.bss .bss.* .gnu.linkonce.b.*)
 .bss.dataToSend
                0x20000150       0x78 XcpTargetSpecific.obj
 .bss.sendSemaphore.0
                0x200001c8        0x1 XcpTargetSpecific.obj
 *fill*         0x200001c9        0x3 
 .bss.xcpCanParameters
                0x200001cc        0x8 XcpTargetSpecific.obj
                0x200001cc                xcpCanParameters
 .bss.xcpTransmissionBus
                0x200001d4        0x1 XcpTargetSpecific.obj
 .bss.xcpUartChannel
                0x200001d5        0x1 XcpTargetSpecific.obj
 .bss.Distance_setpoint
                0x200001d6        0x2 HANcoder_Olimexino_F3_ACC.obj
                0x200001d6                Distance_setpoint
 .bss.E         0x200001d8        0x8 HANcoder_Olimexino_F3_ACC.obj
                0x200001d8                E
 .bss.ON_OFF    0x200001e0        0x1 HANcoder_Olimexino_F3_ACC.obj
                0x200001e0                ON_OFF
 .bss.SI_CPUload
                0x200001e1        0x1 HANcoder_Olimexino_F3_ACC.obj
                0x200001e1                SI_CPUload
 *fill*         0x200001e2        0x2 
 .bss.SI_FreeHeap
                0x200001e4        0x4 HANcoder_Olimexino_F3_ACC.obj
                0x200001e4                SI_FreeHeap
 .bss.SI_FreeStack
                0x200001e8        0x4 HANcoder_Olimexino_F3_ACC.obj
                0x200001e8                SI_FreeStack
 *fill*         0x200001ec        0x4 
 .bss.Sim_GAP   0x200001f0        0x8 HANcoder_Olimexino_F3_ACC.obj
                0x200001f0                Sim_GAP
 .bss.Sim_dist  0x200001f8        0x8 HANcoder_Olimexino_F3_ACC.obj
                0x200001f8                Sim_dist
 .bss.Speed_setpoint
                0x20000200        0x8 HANcoder_Olimexino_F3_ACC.obj
                0x20000200                Speed_setpoint
 .bss.camera_gap
                0x20000208        0x2 HANcoder_Olimexino_F3_ACC.obj
                0x20000208                camera_gap
 *fill*         0x2000020a        0x2 
 .bss.canRxData_0_1U
                0x2000020c        0x8 HANcoder_Olimexino_F3_ACC.obj
 .bss.canRxData_0_291U
                0x20000214        0x8 HANcoder_Olimexino_F3_ACC.obj
 .bss.cc_acc_switcher
                0x2000021c        0x1 HANcoder_Olimexino_F3_ACC.obj
                0x2000021c                cc_acc_switcher
 *fill*         0x2000021d        0x1 
 .bss.control_effort
                0x2000021e        0x2 HANcoder_Olimexino_F3_ACC.obj
                0x2000021e                control_effort
 .bss.gap_valid
                0x20000220        0x2 HANcoder_Olimexino_F3_ACC.obj
                0x20000220                gap_valid
 *fill*         0x20000222        0x6 
 .bss.own_dist  0x20000228        0x8 HANcoder_Olimexino_F3_ACC.obj
                0x20000228                own_dist
 .bss.rtB       0x20000230        0x4 HANcoder_Olimexino_F3_ACC.obj
                0x20000230                rtB
 *fill*         0x20000234        0x4 
 .bss.rtDWork   0x20000238       0xd0 HANcoder_Olimexino_F3_ACC.obj
                0x20000238                rtDWork
 .bss.rtPrevZCSigState
                0x20000308        0x1 HANcoder_Olimexino_F3_ACC.obj
                0x20000308                rtPrevZCSigState
 *fill*         0x20000309        0x7 
 .bss.speed_Right
                0x20000310        0x8 HANcoder_Olimexino_F3_ACC.obj
                0x20000310                speed_Right
 .bss.speed_setpoint
                0x20000318        0x2 HANcoder_Olimexino_F3_ACC.obj
                0x20000318                speed_setpoint
 *fill*         0x2000031a        0x6 
 .bss.switcher  0x20000320        0x8 HANcoder_Olimexino_F3_ACC.obj
                0x20000320                switcher
 .bss.stringPointer.5834
                0x20000328        0x1 ../blockset/rtw/lib/HANcoder_Olimexino_STM32_F3_RTL.a(XcpStack.obj)
 *fill*         0x20000329        0x3 
 .bss.xcpCommunication
                0x2000032c       0x1c ../blockset/rtw/lib/HANcoder_Olimexino_STM32_F3_RTL.a(XcpStack.obj)
                0x2000032c                xcpCommunication
 .bss.xcpMemoryUsage
                0x20000348        0x4 ../blockset/rtw/lib/HANcoder_Olimexino_STM32_F3_RTL.a(XcpStack.obj)
 .bss.aninInitialized
                0x2000034c        0x1 ../blockset/rtw/lib/HANcoder_Olimexino_STM32_F3_RTL.a(anin.obj)
 *fill*         0x2000034d        0x3 
 .bss.aninConversionResults1
                0x20000350       0x10 ../blockset/rtw/lib/HANcoder_Olimexino_STM32_F3_RTL.a(anin.obj)
 .bss.aninChannelCfgInfo
                0x20000360       0x60 ../blockset/rtw/lib/HANcoder_Olimexino_STM32_F3_RTL.a(anin.obj)
 .bss.aninConversionResults3
                0x200003c0        0x4 ../blockset/rtw/lib/HANcoder_Olimexino_STM32_F3_RTL.a(anin.obj)
 .bss.aninConfigurationChangedFlg
                0x200003c4        0x1 ../blockset/rtw/lib/HANcoder_Olimexino_STM32_F3_RTL.a(anin.obj)
 *fill*         0x200003c5        0x3 
 .bss.aninConversionResults2
                0x200003c8        0xc ../blockset/rtw/lib/HANcoder_Olimexino_STM32_F3_RTL.a(anin.obj)
 .bss.canCallbackGenericTransmitted
                0x200003d4        0x8 ../blockset/rtw/lib/HANcoder_Olimexino_STM32_F3_RTL.a(can.obj)
 .bss.canCallbackGenericReceived
                0x200003dc        0x8 ../blockset/rtw/lib/HANcoder_Olimexino_STM32_F3_RTL.a(can.obj)
 .bss.canConnected
                0x200003e4        0x1 ../blockset/rtw/lib/HANcoder_Olimexino_STM32_F3_RTL.a(can.obj)
 *fill*         0x200003e5        0x1 
 .bss.canEventQsize
                0x200003e6        0x2 ../blockset/rtw/lib/HANcoder_Olimexino_STM32_F3_RTL.a(can.obj)
 .bss.canTransmitQsize
                0x200003e8        0x2 ../blockset/rtw/lib/HANcoder_Olimexino_STM32_F3_RTL.a(can.obj)
 *fill*         0x200003ea        0x2 
 .bss.canEventPendingQ
                0x200003ec        0x4 ../blockset/rtw/lib/HANcoder_Olimexino_STM32_F3_RTL.a(can.obj)
 .bss.canStartTimeMs
                0x200003f0        0x4 ../blockset/rtw/lib/HANcoder_Olimexino_STM32_F3_RTL.a(can.obj)
 .bss.canTransmitQ
                0x200003f4        0x4 ../blockset/rtw/lib/HANcoder_Olimexino_STM32_F3_RTL.a(can.obj)
 .bss.canEventTaskHandle
                0x200003f8        0x4 ../blockset/rtw/lib/HANcoder_Olimexino_STM32_F3_RTL.a(can.obj)
 .bss.canTxPendingId
                0x200003fc        0xc ../blockset/rtw/lib/HANcoder_Olimexino_STM32_F3_RTL.a(can.obj)
 .bss.canTransmitTaskHandle
                0x20000408        0x4 ../blockset/rtw/lib/HANcoder_Olimexino_STM32_F3_RTL.a(can.obj)
 .bss.canCallbackError
                0x2000040c        0x8 ../blockset/rtw/lib/HANcoder_Olimexino_STM32_F3_RTL.a(can.obj)
 .bss.pCanIoReceiveMessageStorageQueue
                0x20000414        0x4 ../blockset/rtw/lib/HANcoder_Olimexino_STM32_F3_RTL.a(canio.obj)
 .bss.pCanIoReceiveCallbackQueue
                0x20000418        0x4 ../blockset/rtw/lib/HANcoder_Olimexino_STM32_F3_RTL.a(canio.obj)
 .bss.pCanIoTransmitCallbackQueue
                0x2000041c        0x4 ../blockset/rtw/lib/HANcoder_Olimexino_STM32_F3_RTL.a(canio.obj)
 .bss.canIoCallbackUnmatchedMessageReceived
                0x20000420        0x4 ../blockset/rtw/lib/HANcoder_Olimexino_STM32_F3_RTL.a(canio.obj)
 .bss.ticksCounter.5287
                0x20000424        0x2 ../blockset/rtw/lib/HANcoder_Olimexino_STM32_F3_RTL.a(os.obj)
 *fill*         0x20000426        0x2 
 .bss.osTaskIdMappingQueue
                0x20000428        0x4 ../blockset/rtw/lib/HANcoder_Olimexino_STM32_F3_RTL.a(os.obj)
 .bss.cpuLoadCurrent
                0x2000042c        0x1 ../blockset/rtw/lib/HANcoder_Olimexino_STM32_F3_RTL.a(os.obj)
 *fill*         0x2000042d        0x3 
 .bss.osSystemTimeMs
                0x20000430        0x4 ../blockset/rtw/lib/HANcoder_Olimexino_STM32_F3_RTL.a(os.obj)
 .bss.osCpuLoadTimer
                0x20000434        0x4 ../blockset/rtw/lib/HANcoder_Olimexino_STM32_F3_RTL.a(os.obj)
 .bss.cpuLoadMax
                0x20000438        0x1 ../blockset/rtw/lib/HANcoder_Olimexino_STM32_F3_RTL.a(os.obj)
 *fill*         0x20000439        0x3 
 .bss.osIdleRunTimeMeasurementCtrl
                0x2000043c        0xc ../blockset/rtw/lib/HANcoder_Olimexino_STM32_F3_RTL.a(os.obj)
 .bss.xNumOfOverflows
                0x20000448        0x4 ../blockset/rtw/lib/HANcoder_Olimexino_STM32_F3_RTL.a(tasks.obj)
 .bss.pxDelayedTaskList
                0x2000044c        0x4 ../blockset/rtw/lib/HANcoder_Olimexino_STM32_F3_RTL.a(tasks.obj)
 .bss.xSchedulerRunning
                0x20000450        0x4 ../blockset/rtw/lib/HANcoder_Olimexino_STM32_F3_RTL.a(tasks.obj)
 .bss.xDelayedTaskList1
                0x20000454       0x14 ../blockset/rtw/lib/HANcoder_Olimexino_STM32_F3_RTL.a(tasks.obj)
 .bss.pxOverflowDelayedTaskList
                0x20000468        0x4 ../blockset/rtw/lib/HANcoder_Olimexino_STM32_F3_RTL.a(tasks.obj)
 .bss.uxPendedTicks
                0x2000046c        0x4 ../blockset/rtw/lib/HANcoder_Olimexino_STM32_F3_RTL.a(tasks.obj)
 .bss.pxReadyTasksLists
                0x20000470      0x118 ../blockset/rtw/lib/HANcoder_Olimexino_STM32_F3_RTL.a(tasks.obj)
 .bss.uxSchedulerSuspended
                0x20000588        0x4 ../blockset/rtw/lib/HANcoder_Olimexino_STM32_F3_RTL.a(tasks.obj)
 .bss.uxCurrentNumberOfTasks
                0x2000058c        0x4 ../blockset/rtw/lib/HANcoder_Olimexino_STM32_F3_RTL.a(tasks.obj)
 .bss.xPendingReadyList
                0x20000590       0x14 ../blockset/rtw/lib/HANcoder_Olimexino_STM32_F3_RTL.a(tasks.obj)
 .bss.xIdleTaskHandle
                0x200005a4        0x4 ../blockset/rtw/lib/HANcoder_Olimexino_STM32_F3_RTL.a(tasks.obj)
 .bss.xTickCount
                0x200005a8        0x4 ../blockset/rtw/lib/HANcoder_Olimexino_STM32_F3_RTL.a(tasks.obj)
 .bss.pxCurrentTCB
                0x200005ac        0x4 ../blockset/rtw/lib/HANcoder_Olimexino_STM32_F3_RTL.a(tasks.obj)
                0x200005ac                pxCurrentTCB
 .bss.uxTaskNumber
                0x200005b0        0x4 ../blockset/rtw/lib/HANcoder_Olimexino_STM32_F3_RTL.a(tasks.obj)
 .bss.xNextTaskUnblockTime
                0x200005b4        0x4 ../blockset/rtw/lib/HANcoder_Olimexino_STM32_F3_RTL.a(tasks.obj)
 .bss.xDelayedTaskList2
                0x200005b8       0x14 ../blockset/rtw/lib/HANcoder_Olimexino_STM32_F3_RTL.a(tasks.obj)
 .bss.xSuspendedTaskList
                0x200005cc       0x14 ../blockset/rtw/lib/HANcoder_Olimexino_STM32_F3_RTL.a(tasks.obj)
 .bss.uxTopReadyPriority
                0x200005e0        0x4 ../blockset/rtw/lib/HANcoder_Olimexino_STM32_F3_RTL.a(tasks.obj)
 .bss.xYieldPending
                0x200005e4        0x4 ../blockset/rtw/lib/HANcoder_Olimexino_STM32_F3_RTL.a(tasks.obj)
 .bss.pxCurrentTimerList
                0x200005e8        0x4 ../blockset/rtw/lib/HANcoder_Olimexino_STM32_F3_RTL.a(timers.obj)
 .bss.xActiveTimerList1
                0x200005ec       0x14 ../blockset/rtw/lib/HANcoder_Olimexino_STM32_F3_RTL.a(timers.obj)
 .bss.xActiveTimerList2
                0x20000600       0x14 ../blockset/rtw/lib/HANcoder_Olimexino_STM32_F3_RTL.a(timers.obj)
 .bss.xLastTime.5336
                0x20000614        0x4 ../blockset/rtw/lib/HANcoder_Olimexino_STM32_F3_RTL.a(timers.obj)
 .bss.xTimerQueue
                0x20000618        0x4 ../blockset/rtw/lib/HANcoder_Olimexino_STM32_F3_RTL.a(timers.obj)
 .bss.pxOverflowTimerList
                0x2000061c        0x4 ../blockset/rtw/lib/HANcoder_Olimexino_STM32_F3_RTL.a(timers.obj)
 .bss.ucMaxSysCallPriority
                0x20000620        0x1 ../blockset/rtw/lib/HANcoder_Olimexino_STM32_F3_RTL.a(port.obj)
 *fill*         0x20000621        0x3 
 .bss.ulMaxPRIGROUPValue
                0x20000624        0x4 ../blockset/rtw/lib/HANcoder_Olimexino_STM32_F3_RTL.a(port.obj)
 .bss.callCounter.4736
                0x20000628        0x2 ../blockset/rtw/lib/HANcoder_Olimexino_STM32_F3_RTL.a(port.obj)
 *fill*         0x2000062a        0x2 
 .bss.xFreeBytesRemaining
                0x2000062c        0x4 ../blockset/rtw/lib/HANcoder_Olimexino_STM32_F3_RTL.a(heap_4.obj)
 .bss.pxEnd     0x20000630        0x4 ../blockset/rtw/lib/HANcoder_Olimexino_STM32_F3_RTL.a(heap_4.obj)
 .bss.xStart    0x20000634        0x8 ../blockset/rtw/lib/HANcoder_Olimexino_STM32_F3_RTL.a(heap_4.obj)
 .bss.ucHeap    0x2000063c     0x2000 ../blockset/rtw/lib/HANcoder_Olimexino_STM32_F3_RTL.a(heap_4.obj)
 .bss.xBlockAllocatedBit
                0x2000263c        0x4 ../blockset/rtw/lib/HANcoder_Olimexino_STM32_F3_RTL.a(heap_4.obj)
 .bss.xMinimumEverFreeBytesRemaining
                0x20002640        0x4 ../blockset/rtw/lib/HANcoder_Olimexino_STM32_F3_RTL.a(heap_4.obj)
 .bss.quadEncCounters
                0x20002644       0x10 ../blockset/rtw/lib/HANcoder_Olimexino_STM32_F3_RTL.a(quadencoder.obj)
 .bss.quadEncInitialized
                0x20002654        0x4 ../blockset/rtw/lib/HANcoder_Olimexino_STM32_F3_RTL.a(quadencoder.obj)
 .bss.errCodeNextFreeStoredErrIdx
                0x20002658        0x1 ../blockset/rtw/lib/HANcoder_Olimexino_STM32_F3_RTL.a(errorcodes.obj)
 .bss.errCodeNextFreeActiveErrIdx
                0x20002659        0x1 ../blockset/rtw/lib/HANcoder_Olimexino_STM32_F3_RTL.a(errorcodes.obj)
 *fill*         0x2000265a        0x2 
 .bss.errCodeActiveErrors
                0x2000265c      0x180 ../blockset/rtw/lib/HANcoder_Olimexino_STM32_F3_RTL.a(errorcodes.obj)
 .bss.eeprom_out_of_sync
                0x200027dc        0x1 ../blockset/rtw/lib/HANcoder_Olimexino_STM32_F3_RTL.a(eeprom_sim.obj)
 *fill*         0x200027dd        0x3 
 .bss.eeprom_overlay_buffer
                0x200027e0      0x800 ../blockset/rtw/lib/HANcoder_Olimexino_STM32_F3_RTL.a(eeprom_sim.obj)
 .bss.pin_configured
                0x20002fe0       0x10 ../blockset/rtw/lib/HANcoder_Olimexino_STM32_F3_RTL.a(pwmout.obj)
 .bss.callbackPeriodComplete
                0x20002ff0       0x10 ../blockset/rtw/lib/HANcoder_Olimexino_STM32_F3_RTL.a(pwmout.obj)
 .bss.module_initialized
                0x20003000        0x4 ../blockset/rtw/lib/HANcoder_Olimexino_STM32_F3_RTL.a(pwmout.obj)
 .bss.duty_cycles
                0x20003004       0x20 ../blockset/rtw/lib/HANcoder_Olimexino_STM32_F3_RTL.a(timein.obj)
 .bss.frequencies
                0x20003024       0x40 ../blockset/rtw/lib/HANcoder_Olimexino_STM32_F3_RTL.a(timein.obj)
 .bss.pin_configured
                0x20003064       0x10 ../blockset/rtw/lib/HANcoder_Olimexino_STM32_F3_RTL.a(timein.obj)
 .bss.edge_counter
                0x20003074       0x40 ../blockset/rtw/lib/HANcoder_Olimexino_STM32_F3_RTL.a(timein.obj)
 .bss.zero_hz_detected
                0x200030b4       0x10 ../blockset/rtw/lib/HANcoder_Olimexino_STM32_F3_RTL.a(timein.obj)
 .bss.rising_edge_cnt_prev.7857
                0x200030c4       0x20 ../blockset/rtw/lib/HANcoder_Olimexino_STM32_F3_RTL.a(timein.obj)
 .bss.callbackEdgeDetected
                0x200030e4       0x40 ../blockset/rtw/lib/HANcoder_Olimexino_STM32_F3_RTL.a(timein.obj)
 .bss.duty_cnt.7856
                0x20003124       0x40 ../blockset/rtw/lib/HANcoder_Olimexino_STM32_F3_RTL.a(timein.obj)
 .bss.free_running_counter_overflows
                0x20003164        0x8 ../blockset/rtw/lib/HANcoder_Olimexino_STM32_F3_RTL.a(timein.obj)
 .bss.module_initialized
                0x2000316c        0x4 ../blockset/rtw/lib/HANcoder_Olimexino_STM32_F3_RTL.a(timein.obj)
 .bss.last_edge_high
                0x20003170       0x10 ../blockset/rtw/lib/HANcoder_Olimexino_STM32_F3_RTL.a(timein.obj)
 .bss.last_edge_count
                0x20003180       0x40 ../blockset/rtw/lib/HANcoder_Olimexino_STM32_F3_RTL.a(timein.obj)
 .bss.overflows
                0x200031c0       0x20 ../blockset/rtw/lib/HANcoder_Olimexino_STM32_F3_RTL.a(timein.obj)
 .bss.active    0x200031e0       0x10 ../blockset/rtw/lib/HANcoder_Olimexino_STM32_F3_RTL.a(timein.obj)
 .bss.zero_hz_overflows
                0x200031f0       0x20 ../blockset/rtw/lib/HANcoder_Olimexino_STM32_F3_RTL.a(timein.obj)
 .bss.usbComCallbackDataReceived
                0x20003210        0x4 ../blockset/rtw/lib/HANcoder_Olimexino_STM32_F3_RTL.a(usbcom.obj)
 .bss.USB_Tx_State
                0x20003214        0x1 ../blockset/rtw/lib/HANcoder_Olimexino_STM32_F3_RTL.a(usbcom.obj)
                0x20003214                USB_Tx_State
 *fill*         0x20003215        0x3 
 .bss.USART_Rx_ptr_in
                0x20003218        0x4 ../blockset/rtw/lib/HANcoder_Olimexino_STM32_F3_RTL.a(usbcom.obj)
                0x20003218                USART_Rx_ptr_in
 .bss.USART_Rx_ptr_out
                0x2000321c        0x4 ../blockset/rtw/lib/HANcoder_Olimexino_STM32_F3_RTL.a(usbcom.obj)
                0x2000321c                USART_Rx_ptr_out
 .bss.USART_Rx_length
                0x20003220        0x4 ../blockset/rtw/lib/HANcoder_Olimexino_STM32_F3_RTL.a(usbcom.obj)
                0x20003220                USART_Rx_length
 .bss.usbInitialized
                0x20003224        0x1 ../blockset/rtw/lib/HANcoder_Olimexino_STM32_F3_RTL.a(usbcom.obj)
 *fill*         0x20003225        0x3 
 .bss.bDeviceState
                0x20003228        0x4 ../blockset/rtw/lib/HANcoder_Olimexino_STM32_F3_RTL.a(usb_pwr.obj)
                0x20003228                bDeviceState
 .bss.initialized.9129
                0x2000322c        0x1 ../blockset/rtw/lib/HANcoder_Olimexino_STM32_F3_RTL.a(mac.obj)
 *fill*         0x2000322d        0x3 
 .bss.xcpEventTimer
                0x20003230        0x4 ../blockset/rtw/lib/HANcoder_Olimexino_STM32_F3_RTL.a(mac.obj)
 .bss.uartReceptionQ
                0x20003234        0xc ../blockset/rtw/lib/HANcoder_Olimexino_STM32_F3_RTL.a(uart.obj)
 .bss.callbackDataReceived
                0x20003240        0xc ../blockset/rtw/lib/HANcoder_Olimexino_STM32_F3_RTL.a(uart.obj)
 .bss.uartTransmitQ
                0x2000324c        0xc ../blockset/rtw/lib/HANcoder_Olimexino_STM32_F3_RTL.a(uart.obj)
 .bss.pin_configured
                0x20003258       0x10 ../blockset/rtw/lib/HANcoder_Olimexino_STM32_F3_RTL.a(timeout.obj)
 .bss.counterOverflowDetected
                0x20003268       0x10 ../blockset/rtw/lib/HANcoder_Olimexino_STM32_F3_RTL.a(timeout.obj)
 .bss.lastEventCounter
                0x20003278       0x20 ../blockset/rtw/lib/HANcoder_Olimexino_STM32_F3_RTL.a(timeout.obj)
 .bss.module_initialized
                0x20003298        0x4 ../blockset/rtw/lib/HANcoder_Olimexino_STM32_F3_RTL.a(timeout.obj)
 .bss.compareEventDetected
                0x2000329c       0x40 ../blockset/rtw/lib/HANcoder_Olimexino_STM32_F3_RTL.a(timeout.obj)
 .bss.bIntPackSOF
                0x200032dc        0x1 ../blockset/rtw/lib/HANcoder_Olimexino_STM32_F3_RTL.a(usb_istr.obj)
                0x200032dc                bIntPackSOF
 .bss.Request   0x200032dd        0x1 ../blockset/rtw/lib/HANcoder_Olimexino_STM32_F3_RTL.a(usb_prop.obj)
                0x200032dd                Request
 .bss.Data_Mul_MaxPacketSize
                0x200032de        0x1 ../blockset/rtw/lib/HANcoder_Olimexino_STM32_F3_RTL.a(usb_core.obj)
                0x200032de                Data_Mul_MaxPacketSize
 *fill*         0x200032df        0x1 
 .bss.FrameCount.7686
                0x200032e0        0x4 ../blockset/rtw/lib/HANcoder_Olimexino_STM32_F3_RTL.a(usb_endp.obj)
 *(COMMON)
 COMMON         0x200032e4      0x80c ../blockset/rtw/lib/HANcoder_Olimexino_STM32_F3_RTL.a(XcpStack.obj)
                0x200032e4                xcpMemoryStack
                0x20003ae4                memoryStackPointer
                0x20003ae8                xcpWrite
 COMMON         0x20003af0      0x200 ../blockset/rtw/lib/HANcoder_Olimexino_STM32_F3_RTL.a(usbcom.obj)
                0x20003af0                USART_Rx_Buffer
 COMMON         0x20003cf0       0x32 ../blockset/rtw/lib/HANcoder_Olimexino_STM32_F3_RTL.a(usb_init.obj)
                0x20003cf0                SaveState
                0x20003cf4                pProperty
                0x20003cf8                EPindex
                0x20003cfc                Device_Info
                0x20003d18                pUser_Standard_Requests
                0x20003d1c                pInformation
                0x20003d20                wInterrupt_Mask
 COMMON         0x20003d22        0x2 ../blockset/rtw/lib/HANcoder_Olimexino_STM32_F3_RTL.a(usb_istr.obj)
                0x20003d22                wIstr
 COMMON         0x20003d24        0x2 ../blockset/rtw/lib/HANcoder_Olimexino_STM32_F3_RTL.a(usb_core.obj)
                0x20003d24                StatusInfo
 COMMON         0x20003d26        0x4 ../blockset/rtw/lib/HANcoder_Olimexino_STM32_F3_RTL.a(usb_int.obj)
                0x20003d26                SaveRState
                0x20003d28                SaveTState
 *fill*         0x20003d2a        0x2 
 COMMON         0x20003d2c       0x40 ../blockset/rtw/lib/HANcoder_Olimexino_STM32_F3_RTL.a(usb_endp.obj)
                0x20003d2c                USB_Rx_Buffer
                0x20003d70                . = ALIGN (0x8)
 *fill*         0x20003d6c        0x4 
 *(.ram.b .bss.ram)
                0x20003d70                _ebss = .
                0x20003d70                _heap = .
                0x20003d70                . = ALIGN (MAX ((_heap + __HEAPSIZE__), .), 0x4)
                0x20003d70                _eheap = .
                0x20003d70                _stack = .
                0x2000434c                . = ALIGN (MAX ((_stack + __STACKSIZE__), .), 0x4)
 *fill*         0x20003d70      0x5dc 
                0x2000434c                _estack = .
                0x20004350                . = ALIGN (0x8)
 *fill*         0x2000434c        0x4 
                0x20004350                _end = .
                0x20004350                __end = .

.stab
 *(.stab)

.stabstr
 *(.stabstr)

.debug
 *(.debug)

.line
 *(.line)

.debug_srcinfo
 *(.debug_srcinfo)

.debug_sfnames
 *(.debug_sfnames)

.debug_aranges  0x00000000     0x1b10
 *(.debug_aranges)
 .debug_aranges
                0x00000000       0x18 HANcoder_Olimexino_F3_ACC_data.obj
 .debug_aranges
                0x00000018       0x30 model.obj
 .debug_aranges
                0x00000048       0x70 XcpTargetSpecific.obj
 .debug_aranges
                0x000000b8       0x38 HANcoder_Olimexino_F3_ACC.obj
 .debug_aranges
                0x000000f0       0x50 ../blockset/rtw/lib/HANcoder_Olimexino_STM32_F3_RTL.a(XcpStack.obj)
 .debug_aranges
                0x00000140       0x38 ../blockset/rtw/lib/HANcoder_Olimexino_STM32_F3_RTL.a(app.obj)
 .debug_aranges
                0x00000178       0x50 ../blockset/rtw/lib/HANcoder_Olimexino_STM32_F3_RTL.a(anin.obj)
 .debug_aranges
                0x000001c8       0x98 ../blockset/rtw/lib/HANcoder_Olimexino_STM32_F3_RTL.a(can.obj)
 .debug_aranges
                0x00000260       0x58 ../blockset/rtw/lib/HANcoder_Olimexino_STM32_F3_RTL.a(canio.obj)
 .debug_aranges
                0x000002b8       0x28 ../blockset/rtw/lib/HANcoder_Olimexino_STM32_F3_RTL.a(digin.obj)
 .debug_aranges
                0x000002e0       0xb0 ../blockset/rtw/lib/HANcoder_Olimexino_STM32_F3_RTL.a(os.obj)
 .debug_aranges
                0x00000390       0xc8 ../blockset/rtw/lib/HANcoder_Olimexino_STM32_F3_RTL.a(queue.obj)
 .debug_aranges
                0x00000458      0x168 ../blockset/rtw/lib/HANcoder_Olimexino_STM32_F3_RTL.a(tasks.obj)
 .debug_aranges
                0x000005c0       0x70 ../blockset/rtw/lib/HANcoder_Olimexino_STM32_F3_RTL.a(timers.obj)
 .debug_aranges
                0x00000630       0x98 ../blockset/rtw/lib/HANcoder_Olimexino_STM32_F3_RTL.a(port.obj)
 .debug_aranges
                0x000006c8       0x48 ../blockset/rtw/lib/HANcoder_Olimexino_STM32_F3_RTL.a(heap_4.obj)
 .debug_aranges
                0x00000710       0x40 ../blockset/rtw/lib/HANcoder_Olimexino_STM32_F3_RTL.a(misc.obj)
 .debug_aranges
                0x00000750      0x220 ../blockset/rtw/lib/HANcoder_Olimexino_STM32_F3_RTL.a(stm32f30x_adc.obj)
 .debug_aranges
                0x00000970       0xd8 ../blockset/rtw/lib/HANcoder_Olimexino_STM32_F3_RTL.a(stm32f30x_can.obj)
 .debug_aranges
                0x00000a48       0x60 ../blockset/rtw/lib/HANcoder_Olimexino_STM32_F3_RTL.a(stm32f30x_dma.obj)
 .debug_aranges
                0x00000aa8       0x80 ../blockset/rtw/lib/HANcoder_Olimexino_STM32_F3_RTL.a(stm32f30x_gpio.obj)
 .debug_aranges
                0x00000b28      0x150 ../blockset/rtw/lib/HANcoder_Olimexino_STM32_F3_RTL.a(stm32f30x_rcc.obj)
 .debug_aranges
                0x00000c78       0x48 ../blockset/rtw/lib/HANcoder_Olimexino_STM32_F3_RTL.a(vectors.obj)
 .debug_aranges
                0x00000cc0       0x38 ../blockset/rtw/lib/HANcoder_Olimexino_STM32_F3_RTL.a(quadencoder.obj)
 .debug_aranges
                0x00000cf8       0x90 ../blockset/rtw/lib/HANcoder_Olimexino_STM32_F3_RTL.a(errorcodes.obj)
 .debug_aranges
                0x00000d88       0x40 ../blockset/rtw/lib/HANcoder_Olimexino_STM32_F3_RTL.a(eeprom.obj)
 .debug_aranges
                0x00000dc8       0x20 ../blockset/rtw/lib/HANcoder_Olimexino_STM32_F3_RTL.a(reset.obj)
 .debug_aranges
                0x00000de8       0xa0 ../blockset/rtw/lib/HANcoder_Olimexino_STM32_F3_RTL.a(eeprom_sim.obj)
 .debug_aranges
                0x00000e88       0x68 ../blockset/rtw/lib/HANcoder_Olimexino_STM32_F3_RTL.a(pwmout.obj)
 .debug_aranges
                0x00000ef0       0xa8 ../blockset/rtw/lib/HANcoder_Olimexino_STM32_F3_RTL.a(timein.obj)
 .debug_aranges
                0x00000f98       0x70 ../blockset/rtw/lib/HANcoder_Olimexino_STM32_F3_RTL.a(usbcom.obj)
 .debug_aranges
                0x00001008       0x40 ../blockset/rtw/lib/HANcoder_Olimexino_STM32_F3_RTL.a(usb_pwr.obj)
 .debug_aranges
                0x00001048       0x20 ../blockset/rtw/lib/HANcoder_Olimexino_STM32_F3_RTL.a(stackOverflowHook.obj)
 .debug_aranges
                0x00001068       0x58 ../blockset/rtw/lib/HANcoder_Olimexino_STM32_F3_RTL.a(mac.obj)
 .debug_aranges
                0x000010c0       0x70 ../blockset/rtw/lib/HANcoder_Olimexino_STM32_F3_RTL.a(uart.obj)
 .debug_aranges
                0x00001130       0x80 ../blockset/rtw/lib/HANcoder_Olimexino_STM32_F3_RTL.a(timeout.obj)
 .debug_aranges
                0x000011b0       0x20 ../blockset/rtw/lib/HANcoder_Olimexino_STM32_F3_RTL.a(cstart.obj)
 .debug_aranges
                0x000011d0       0x40 ../blockset/rtw/lib/HANcoder_Olimexino_STM32_F3_RTL.a(list.obj)
 .debug_aranges
                0x00001210       0x28 ../blockset/rtw/lib/HANcoder_Olimexino_STM32_F3_RTL.a(system_stm32f30x.obj)
 .debug_aranges
                0x00001238      0x378 ../blockset/rtw/lib/HANcoder_Olimexino_STM32_F3_RTL.a(stm32f30x_tim.obj)
 .debug_aranges
                0x000015b0      0x1a0 ../blockset/rtw/lib/HANcoder_Olimexino_STM32_F3_RTL.a(stm32f30x_usart.obj)
 .debug_aranges
                0x00001750       0x20 ../blockset/rtw/lib/HANcoder_Olimexino_STM32_F3_RTL.a(usb_init.obj)
 .debug_aranges
                0x00001770       0x28 ../blockset/rtw/lib/HANcoder_Olimexino_STM32_F3_RTL.a(usb_mem.obj)
 .debug_aranges
                0x00001798      0x1a0 ../blockset/rtw/lib/HANcoder_Olimexino_STM32_F3_RTL.a(usb_regs.obj)
 .debug_aranges
                0x00001938       0x18 ../blockset/rtw/lib/HANcoder_Olimexino_STM32_F3_RTL.a(usb_desc.obj)
 .debug_aranges
                0x00001950       0x20 ../blockset/rtw/lib/HANcoder_Olimexino_STM32_F3_RTL.a(usb_istr.obj)
 .debug_aranges
                0x00001970       0x80 ../blockset/rtw/lib/HANcoder_Olimexino_STM32_F3_RTL.a(usb_prop.obj)
 .debug_aranges
                0x000019f0       0x98 ../blockset/rtw/lib/HANcoder_Olimexino_STM32_F3_RTL.a(usb_core.obj)
 .debug_aranges
                0x00001a88       0x28 ../blockset/rtw/lib/HANcoder_Olimexino_STM32_F3_RTL.a(usb_int.obj)
 .debug_aranges
                0x00001ab0       0x30 ../blockset/rtw/lib/HANcoder_Olimexino_STM32_F3_RTL.a(usb_sil.obj)
 .debug_aranges
                0x00001ae0       0x30 ../blockset/rtw/lib/HANcoder_Olimexino_STM32_F3_RTL.a(usb_endp.obj)

.debug_pubnames
 *(.debug_pubnames)

.debug_info     0x00000000    0x21667
 *(.debug_info .gnu.linkonce.wi.*)
 .debug_info    0x00000000       0xf6 HANcoder_Olimexino_F3_ACC_data.obj
 .debug_info    0x000000f6      0x21c model.obj
 .debug_info    0x00000312      0x6a6 XcpTargetSpecific.obj
 .debug_info    0x000009b8     0x125a HANcoder_Olimexino_F3_ACC.obj
 .debug_info    0x00001c12     0x124a ../blockset/rtw/lib/HANcoder_Olimexino_STM32_F3_RTL.a(XcpStack.obj)
 .debug_info    0x00002e5c      0x296 ../blockset/rtw/lib/HANcoder_Olimexino_STM32_F3_RTL.a(app.obj)
 .debug_info    0x000030f2     0x1473 ../blockset/rtw/lib/HANcoder_Olimexino_STM32_F3_RTL.a(anin.obj)
 .debug_info    0x00004565     0x23da ../blockset/rtw/lib/HANcoder_Olimexino_STM32_F3_RTL.a(can.obj)
 .debug_info    0x0000693f      0x7e1 ../blockset/rtw/lib/HANcoder_Olimexino_STM32_F3_RTL.a(canio.obj)
 .debug_info    0x00007120      0x4c2 ../blockset/rtw/lib/HANcoder_Olimexino_STM32_F3_RTL.a(digin.obj)
 .debug_info    0x000075e2      0xc6c ../blockset/rtw/lib/HANcoder_Olimexino_STM32_F3_RTL.a(os.obj)
 .debug_info    0x0000824e     0x1726 ../blockset/rtw/lib/HANcoder_Olimexino_STM32_F3_RTL.a(queue.obj)
 .debug_info    0x00009974     0x2219 ../blockset/rtw/lib/HANcoder_Olimexino_STM32_F3_RTL.a(tasks.obj)
 .debug_info    0x0000bb8d      0xf61 ../blockset/rtw/lib/HANcoder_Olimexino_STM32_F3_RTL.a(timers.obj)
 .debug_info    0x0000caee      0x51d ../blockset/rtw/lib/HANcoder_Olimexino_STM32_F3_RTL.a(port.obj)
 .debug_info    0x0000d00b      0x41a ../blockset/rtw/lib/HANcoder_Olimexino_STM32_F3_RTL.a(heap_4.obj)
 .debug_info    0x0000d425      0x560 ../blockset/rtw/lib/HANcoder_Olimexino_STM32_F3_RTL.a(misc.obj)
 .debug_info    0x0000d985     0x143c ../blockset/rtw/lib/HANcoder_Olimexino_STM32_F3_RTL.a(stm32f30x_adc.obj)
 .debug_info    0x0000edc1      0xc49 ../blockset/rtw/lib/HANcoder_Olimexino_STM32_F3_RTL.a(stm32f30x_can.obj)
 .debug_info    0x0000fa0a      0x400 ../blockset/rtw/lib/HANcoder_Olimexino_STM32_F3_RTL.a(stm32f30x_dma.obj)
 .debug_info    0x0000fe0a      0x756 ../blockset/rtw/lib/HANcoder_Olimexino_STM32_F3_RTL.a(stm32f30x_gpio.obj)
 .debug_info    0x00010560      0xb7c ../blockset/rtw/lib/HANcoder_Olimexino_STM32_F3_RTL.a(stm32f30x_rcc.obj)
 .debug_info    0x000110dc      0x2b4 ../blockset/rtw/lib/HANcoder_Olimexino_STM32_F3_RTL.a(vectors.obj)
 .debug_info    0x00011390      0x8e2 ../blockset/rtw/lib/HANcoder_Olimexino_STM32_F3_RTL.a(quadencoder.obj)
 .debug_info    0x00011c72      0x9e2 ../blockset/rtw/lib/HANcoder_Olimexino_STM32_F3_RTL.a(errorcodes.obj)
 .debug_info    0x00012654      0x1c4 ../blockset/rtw/lib/HANcoder_Olimexino_STM32_F3_RTL.a(eeprom.obj)
 .debug_info    0x00012818      0x29d ../blockset/rtw/lib/HANcoder_Olimexino_STM32_F3_RTL.a(reset.obj)
 .debug_info    0x00012ab5      0xdb7 ../blockset/rtw/lib/HANcoder_Olimexino_STM32_F3_RTL.a(eeprom_sim.obj)
 .debug_info    0x0001386c     0x10f7 ../blockset/rtw/lib/HANcoder_Olimexino_STM32_F3_RTL.a(pwmout.obj)
 .debug_info    0x00014963     0x15f3 ../blockset/rtw/lib/HANcoder_Olimexino_STM32_F3_RTL.a(timein.obj)
 .debug_info    0x00015f56      0xcf0 ../blockset/rtw/lib/HANcoder_Olimexino_STM32_F3_RTL.a(usbcom.obj)
 .debug_info    0x00016c46      0x39c ../blockset/rtw/lib/HANcoder_Olimexino_STM32_F3_RTL.a(usb_pwr.obj)
 .debug_info    0x00016fe2      0x3b9 ../blockset/rtw/lib/HANcoder_Olimexino_STM32_F3_RTL.a(stackOverflowHook.obj)
 .debug_info    0x0001739b      0x574 ../blockset/rtw/lib/HANcoder_Olimexino_STM32_F3_RTL.a(mac.obj)
 .debug_info    0x0001790f     0x1031 ../blockset/rtw/lib/HANcoder_Olimexino_STM32_F3_RTL.a(uart.obj)
 .debug_info    0x00018940     0x14af ../blockset/rtw/lib/HANcoder_Olimexino_STM32_F3_RTL.a(timeout.obj)
 .debug_info    0x00019def      0x15d ../blockset/rtw/lib/HANcoder_Olimexino_STM32_F3_RTL.a(cstart.obj)
 .debug_info    0x00019f4c      0x29f ../blockset/rtw/lib/HANcoder_Olimexino_STM32_F3_RTL.a(list.obj)
 .debug_info    0x0001a1eb      0x4df ../blockset/rtw/lib/HANcoder_Olimexino_STM32_F3_RTL.a(system_stm32f30x.obj)
 .debug_info    0x0001a6ca     0x28f5 ../blockset/rtw/lib/HANcoder_Olimexino_STM32_F3_RTL.a(stm32f30x_tim.obj)
 .debug_info    0x0001cfbf      0xfeb ../blockset/rtw/lib/HANcoder_Olimexino_STM32_F3_RTL.a(stm32f30x_usart.obj)
 .debug_info    0x0001dfaa      0x458 ../blockset/rtw/lib/HANcoder_Olimexino_STM32_F3_RTL.a(usb_init.obj)
 .debug_info    0x0001e402      0x1e4 ../blockset/rtw/lib/HANcoder_Olimexino_STM32_F3_RTL.a(usb_mem.obj)
 .debug_info    0x0001e5e6      0xb42 ../blockset/rtw/lib/HANcoder_Olimexino_STM32_F3_RTL.a(usb_regs.obj)
 .debug_info    0x0001f128      0x18c ../blockset/rtw/lib/HANcoder_Olimexino_STM32_F3_RTL.a(usb_desc.obj)
 .debug_info    0x0001f2b4      0x2a7 ../blockset/rtw/lib/HANcoder_Olimexino_STM32_F3_RTL.a(usb_istr.obj)
 .debug_info    0x0001f55b      0xb2d ../blockset/rtw/lib/HANcoder_Olimexino_STM32_F3_RTL.a(usb_prop.obj)
 .debug_info    0x00020088      0xeb5 ../blockset/rtw/lib/HANcoder_Olimexino_STM32_F3_RTL.a(usb_core.obj)
 .debug_info    0x00020f3d      0x202 ../blockset/rtw/lib/HANcoder_Olimexino_STM32_F3_RTL.a(usb_int.obj)
 .debug_info    0x0002113f      0x258 ../blockset/rtw/lib/HANcoder_Olimexino_STM32_F3_RTL.a(usb_sil.obj)
 .debug_info    0x00021397      0x2d0 ../blockset/rtw/lib/HANcoder_Olimexino_STM32_F3_RTL.a(usb_endp.obj)

.debug_abbrev   0x00000000     0x6499
 *(.debug_abbrev)
 .debug_abbrev  0x00000000       0x90 HANcoder_Olimexino_F3_ACC_data.obj
 .debug_abbrev  0x00000090      0x11e model.obj
 .debug_abbrev  0x000001ae      0x301 XcpTargetSpecific.obj
 .debug_abbrev  0x000004af      0x2d5 HANcoder_Olimexino_F3_ACC.obj
 .debug_abbrev  0x00000784      0x2f1 ../blockset/rtw/lib/HANcoder_Olimexino_STM32_F3_RTL.a(XcpStack.obj)
 .debug_abbrev  0x00000a75       0xe4 ../blockset/rtw/lib/HANcoder_Olimexino_STM32_F3_RTL.a(app.obj)
 .debug_abbrev  0x00000b59      0x310 ../blockset/rtw/lib/HANcoder_Olimexino_STM32_F3_RTL.a(anin.obj)
 .debug_abbrev  0x00000e69      0x3c8 ../blockset/rtw/lib/HANcoder_Olimexino_STM32_F3_RTL.a(can.obj)
 .debug_abbrev  0x00001231      0x251 ../blockset/rtw/lib/HANcoder_Olimexino_STM32_F3_RTL.a(canio.obj)
 .debug_abbrev  0x00001482      0x1b3 ../blockset/rtw/lib/HANcoder_Olimexino_STM32_F3_RTL.a(digin.obj)
 .debug_abbrev  0x00001635      0x3c4 ../blockset/rtw/lib/HANcoder_Olimexino_STM32_F3_RTL.a(os.obj)
 .debug_abbrev  0x000019f9      0x291 ../blockset/rtw/lib/HANcoder_Olimexino_STM32_F3_RTL.a(queue.obj)
 .debug_abbrev  0x00001c8a      0x368 ../blockset/rtw/lib/HANcoder_Olimexino_STM32_F3_RTL.a(tasks.obj)
 .debug_abbrev  0x00001ff2      0x2ac ../blockset/rtw/lib/HANcoder_Olimexino_STM32_F3_RTL.a(timers.obj)
 .debug_abbrev  0x0000229e      0x23a ../blockset/rtw/lib/HANcoder_Olimexino_STM32_F3_RTL.a(port.obj)
 .debug_abbrev  0x000024d8      0x214 ../blockset/rtw/lib/HANcoder_Olimexino_STM32_F3_RTL.a(heap_4.obj)
 .debug_abbrev  0x000026ec      0x158 ../blockset/rtw/lib/HANcoder_Olimexino_STM32_F3_RTL.a(misc.obj)
 .debug_abbrev  0x00002844      0x1e0 ../blockset/rtw/lib/HANcoder_Olimexino_STM32_F3_RTL.a(stm32f30x_adc.obj)
 .debug_abbrev  0x00002a24      0x286 ../blockset/rtw/lib/HANcoder_Olimexino_STM32_F3_RTL.a(stm32f30x_can.obj)
 .debug_abbrev  0x00002caa      0x168 ../blockset/rtw/lib/HANcoder_Olimexino_STM32_F3_RTL.a(stm32f30x_dma.obj)
 .debug_abbrev  0x00002e12      0x1e6 ../blockset/rtw/lib/HANcoder_Olimexino_STM32_F3_RTL.a(stm32f30x_gpio.obj)
 .debug_abbrev  0x00002ff8      0x299 ../blockset/rtw/lib/HANcoder_Olimexino_STM32_F3_RTL.a(stm32f30x_rcc.obj)
 .debug_abbrev  0x00003291       0xeb ../blockset/rtw/lib/HANcoder_Olimexino_STM32_F3_RTL.a(vectors.obj)
 .debug_abbrev  0x0000337c      0x1be ../blockset/rtw/lib/HANcoder_Olimexino_STM32_F3_RTL.a(quadencoder.obj)
 .debug_abbrev  0x0000353a      0x2c9 ../blockset/rtw/lib/HANcoder_Olimexino_STM32_F3_RTL.a(errorcodes.obj)
 .debug_abbrev  0x00003803       0xd3 ../blockset/rtw/lib/HANcoder_Olimexino_STM32_F3_RTL.a(eeprom.obj)
 .debug_abbrev  0x000038d6       0xdb ../blockset/rtw/lib/HANcoder_Olimexino_STM32_F3_RTL.a(reset.obj)
 .debug_abbrev  0x000039b1      0x238 ../blockset/rtw/lib/HANcoder_Olimexino_STM32_F3_RTL.a(eeprom_sim.obj)
 .debug_abbrev  0x00003be9      0x237 ../blockset/rtw/lib/HANcoder_Olimexino_STM32_F3_RTL.a(pwmout.obj)
 .debug_abbrev  0x00003e20      0x316 ../blockset/rtw/lib/HANcoder_Olimexino_STM32_F3_RTL.a(timein.obj)
 .debug_abbrev  0x00004136      0x39c ../blockset/rtw/lib/HANcoder_Olimexino_STM32_F3_RTL.a(usbcom.obj)
 .debug_abbrev  0x000044d2      0x1bc ../blockset/rtw/lib/HANcoder_Olimexino_STM32_F3_RTL.a(usb_pwr.obj)
 .debug_abbrev  0x0000468e      0x15c ../blockset/rtw/lib/HANcoder_Olimexino_STM32_F3_RTL.a(stackOverflowHook.obj)
 .debug_abbrev  0x000047ea      0x162 ../blockset/rtw/lib/HANcoder_Olimexino_STM32_F3_RTL.a(mac.obj)
 .debug_abbrev  0x0000494c      0x261 ../blockset/rtw/lib/HANcoder_Olimexino_STM32_F3_RTL.a(uart.obj)
 .debug_abbrev  0x00004bad      0x2e0 ../blockset/rtw/lib/HANcoder_Olimexino_STM32_F3_RTL.a(timeout.obj)
 .debug_abbrev  0x00004e8d       0xe2 ../blockset/rtw/lib/HANcoder_Olimexino_STM32_F3_RTL.a(cstart.obj)
 .debug_abbrev  0x00004f6f       0xdc ../blockset/rtw/lib/HANcoder_Olimexino_STM32_F3_RTL.a(list.obj)
 .debug_abbrev  0x0000504b      0x147 ../blockset/rtw/lib/HANcoder_Olimexino_STM32_F3_RTL.a(system_stm32f30x.obj)
 .debug_abbrev  0x00005192      0x279 ../blockset/rtw/lib/HANcoder_Olimexino_STM32_F3_RTL.a(stm32f30x_tim.obj)
 .debug_abbrev  0x0000540b      0x1ca ../blockset/rtw/lib/HANcoder_Olimexino_STM32_F3_RTL.a(stm32f30x_usart.obj)
 .debug_abbrev  0x000055d5      0x11f ../blockset/rtw/lib/HANcoder_Olimexino_STM32_F3_RTL.a(usb_init.obj)
 .debug_abbrev  0x000056f4       0x9f ../blockset/rtw/lib/HANcoder_Olimexino_STM32_F3_RTL.a(usb_mem.obj)
 .debug_abbrev  0x00005793      0x1fe ../blockset/rtw/lib/HANcoder_Olimexino_STM32_F3_RTL.a(usb_regs.obj)
 .debug_abbrev  0x00005991       0x75 ../blockset/rtw/lib/HANcoder_Olimexino_STM32_F3_RTL.a(usb_desc.obj)
 .debug_abbrev  0x00005a06      0x117 ../blockset/rtw/lib/HANcoder_Olimexino_STM32_F3_RTL.a(usb_istr.obj)
 .debug_abbrev  0x00005b1d      0x268 ../blockset/rtw/lib/HANcoder_Olimexino_STM32_F3_RTL.a(usb_prop.obj)
 .debug_abbrev  0x00005d85      0x3e5 ../blockset/rtw/lib/HANcoder_Olimexino_STM32_F3_RTL.a(usb_core.obj)
 .debug_abbrev  0x0000616a       0xfb ../blockset/rtw/lib/HANcoder_Olimexino_STM32_F3_RTL.a(usb_int.obj)
 .debug_abbrev  0x00006265      0x103 ../blockset/rtw/lib/HANcoder_Olimexino_STM32_F3_RTL.a(usb_sil.obj)
 .debug_abbrev  0x00006368      0x131 ../blockset/rtw/lib/HANcoder_Olimexino_STM32_F3_RTL.a(usb_endp.obj)

.debug_line     0x00000000     0xd5c5
 *(.debug_line)
 .debug_line    0x00000000      0x141 HANcoder_Olimexino_F3_ACC_data.obj
 .debug_line    0x00000141      0x1c3 model.obj
 .debug_line    0x00000304      0x495 XcpTargetSpecific.obj
 .debug_line    0x00000799      0xb2e HANcoder_Olimexino_F3_ACC.obj
 .debug_line    0x000012c7      0x4ec ../blockset/rtw/lib/HANcoder_Olimexino_STM32_F3_RTL.a(XcpStack.obj)
 .debug_line    0x000017b3      0x26a ../blockset/rtw/lib/HANcoder_Olimexino_STM32_F3_RTL.a(app.obj)
 .debug_line    0x00001a1d      0x478 ../blockset/rtw/lib/HANcoder_Olimexino_STM32_F3_RTL.a(anin.obj)
 .debug_line    0x00001e95      0x79f ../blockset/rtw/lib/HANcoder_Olimexino_STM32_F3_RTL.a(can.obj)
 .debug_line    0x00002634      0x32e ../blockset/rtw/lib/HANcoder_Olimexino_STM32_F3_RTL.a(canio.obj)
 .debug_line    0x00002962      0x24f ../blockset/rtw/lib/HANcoder_Olimexino_STM32_F3_RTL.a(digin.obj)
 .debug_line    0x00002bb1      0x517 ../blockset/rtw/lib/HANcoder_Olimexino_STM32_F3_RTL.a(os.obj)
 .debug_line    0x000030c8      0x795 ../blockset/rtw/lib/HANcoder_Olimexino_STM32_F3_RTL.a(queue.obj)
 .debug_line    0x0000385d      0xbe9 ../blockset/rtw/lib/HANcoder_Olimexino_STM32_F3_RTL.a(tasks.obj)
 .debug_line    0x00004446      0x44f ../blockset/rtw/lib/HANcoder_Olimexino_STM32_F3_RTL.a(timers.obj)
 .debug_line    0x00004895      0x41b ../blockset/rtw/lib/HANcoder_Olimexino_STM32_F3_RTL.a(port.obj)
 .debug_line    0x00004cb0      0x37a ../blockset/rtw/lib/HANcoder_Olimexino_STM32_F3_RTL.a(heap_4.obj)
 .debug_line    0x0000502a      0x259 ../blockset/rtw/lib/HANcoder_Olimexino_STM32_F3_RTL.a(misc.obj)
 .debug_line    0x00005283      0x806 ../blockset/rtw/lib/HANcoder_Olimexino_STM32_F3_RTL.a(stm32f30x_adc.obj)
 .debug_line    0x00005a89      0x5d5 ../blockset/rtw/lib/HANcoder_Olimexino_STM32_F3_RTL.a(stm32f30x_can.obj)
 .debug_line    0x0000605e      0x2ee ../blockset/rtw/lib/HANcoder_Olimexino_STM32_F3_RTL.a(stm32f30x_dma.obj)
 .debug_line    0x0000634c      0x360 ../blockset/rtw/lib/HANcoder_Olimexino_STM32_F3_RTL.a(stm32f30x_gpio.obj)
 .debug_line    0x000066ac      0x5e5 ../blockset/rtw/lib/HANcoder_Olimexino_STM32_F3_RTL.a(stm32f30x_rcc.obj)
 .debug_line    0x00006c91      0x1f3 ../blockset/rtw/lib/HANcoder_Olimexino_STM32_F3_RTL.a(vectors.obj)
 .debug_line    0x00006e84      0x2d9 ../blockset/rtw/lib/HANcoder_Olimexino_STM32_F3_RTL.a(quadencoder.obj)
 .debug_line    0x0000715d      0x528 ../blockset/rtw/lib/HANcoder_Olimexino_STM32_F3_RTL.a(errorcodes.obj)
 .debug_line    0x00007685      0x1aa ../blockset/rtw/lib/HANcoder_Olimexino_STM32_F3_RTL.a(eeprom.obj)
 .debug_line    0x0000782f      0x182 ../blockset/rtw/lib/HANcoder_Olimexino_STM32_F3_RTL.a(reset.obj)
 .debug_line    0x000079b1      0x3f8 ../blockset/rtw/lib/HANcoder_Olimexino_STM32_F3_RTL.a(eeprom_sim.obj)
 .debug_line    0x00007da9      0x3fd ../blockset/rtw/lib/HANcoder_Olimexino_STM32_F3_RTL.a(pwmout.obj)
 .debug_line    0x000081a6      0x5de ../blockset/rtw/lib/HANcoder_Olimexino_STM32_F3_RTL.a(timein.obj)
 .debug_line    0x00008784      0x441 ../blockset/rtw/lib/HANcoder_Olimexino_STM32_F3_RTL.a(usbcom.obj)
 .debug_line    0x00008bc5      0x2c1 ../blockset/rtw/lib/HANcoder_Olimexino_STM32_F3_RTL.a(usb_pwr.obj)
 .debug_line    0x00008e86      0x23f ../blockset/rtw/lib/HANcoder_Olimexino_STM32_F3_RTL.a(stackOverflowHook.obj)
 .debug_line    0x000090c5      0x33a ../blockset/rtw/lib/HANcoder_Olimexino_STM32_F3_RTL.a(mac.obj)
 .debug_line    0x000093ff      0x46f ../blockset/rtw/lib/HANcoder_Olimexino_STM32_F3_RTL.a(uart.obj)
 .debug_line    0x0000986e      0x502 ../blockset/rtw/lib/HANcoder_Olimexino_STM32_F3_RTL.a(timeout.obj)
 .debug_line    0x00009d70      0x208 ../blockset/rtw/lib/HANcoder_Olimexino_STM32_F3_RTL.a(cstart.obj)
 .debug_line    0x00009f78      0x268 ../blockset/rtw/lib/HANcoder_Olimexino_STM32_F3_RTL.a(list.obj)
 .debug_line    0x0000a1e0      0x22d ../blockset/rtw/lib/HANcoder_Olimexino_STM32_F3_RTL.a(system_stm32f30x.obj)
 .debug_line    0x0000a40d      0xdbe ../blockset/rtw/lib/HANcoder_Olimexino_STM32_F3_RTL.a(stm32f30x_tim.obj)
 .debug_line    0x0000b1cb      0x692 ../blockset/rtw/lib/HANcoder_Olimexino_STM32_F3_RTL.a(stm32f30x_usart.obj)
 .debug_line    0x0000b85d      0x1e3 ../blockset/rtw/lib/HANcoder_Olimexino_STM32_F3_RTL.a(usb_init.obj)
 .debug_line    0x0000ba40      0x1b6 ../blockset/rtw/lib/HANcoder_Olimexino_STM32_F3_RTL.a(usb_mem.obj)
 .debug_line    0x0000bbf6      0x5cb ../blockset/rtw/lib/HANcoder_Olimexino_STM32_F3_RTL.a(usb_regs.obj)
 .debug_line    0x0000c1c1      0x15c ../blockset/rtw/lib/HANcoder_Olimexino_STM32_F3_RTL.a(usb_desc.obj)
 .debug_line    0x0000c31d      0x22c ../blockset/rtw/lib/HANcoder_Olimexino_STM32_F3_RTL.a(usb_istr.obj)
 .debug_line    0x0000c549      0x36e ../blockset/rtw/lib/HANcoder_Olimexino_STM32_F3_RTL.a(usb_prop.obj)
 .debug_line    0x0000c8b7      0x611 ../blockset/rtw/lib/HANcoder_Olimexino_STM32_F3_RTL.a(usb_core.obj)
 .debug_line    0x0000cec8      0x27d ../blockset/rtw/lib/HANcoder_Olimexino_STM32_F3_RTL.a(usb_int.obj)
 .debug_line    0x0000d145      0x224 ../blockset/rtw/lib/HANcoder_Olimexino_STM32_F3_RTL.a(usb_sil.obj)
 .debug_line    0x0000d369      0x25c ../blockset/rtw/lib/HANcoder_Olimexino_STM32_F3_RTL.a(usb_endp.obj)

.debug_frame    0x00000000     0x51c0
 *(.debug_frame)
 .debug_frame   0x00000000       0x4c model.obj
 .debug_frame   0x0000004c       0xf8 XcpTargetSpecific.obj
 .debug_frame   0x00000144       0xc0 HANcoder_Olimexino_F3_ACC.obj
 .debug_frame   0x00000204      0x204 ../blockset/rtw/lib/HANcoder_Olimexino_STM32_F3_RTL.a(XcpStack.obj)
 .debug_frame   0x00000408       0x70 ../blockset/rtw/lib/HANcoder_Olimexino_STM32_F3_RTL.a(app.obj)
 .debug_frame   0x00000478       0xf8 ../blockset/rtw/lib/HANcoder_Olimexino_STM32_F3_RTL.a(anin.obj)
 .debug_frame   0x00000570      0x264 ../blockset/rtw/lib/HANcoder_Olimexino_STM32_F3_RTL.a(can.obj)
 .debug_frame   0x000007d4      0x140 ../blockset/rtw/lib/HANcoder_Olimexino_STM32_F3_RTL.a(canio.obj)
 .debug_frame   0x00000914       0x5c ../blockset/rtw/lib/HANcoder_Olimexino_STM32_F3_RTL.a(digin.obj)
 .debug_frame   0x00000970      0x210 ../blockset/rtw/lib/HANcoder_Olimexino_STM32_F3_RTL.a(os.obj)
 .debug_frame   0x00000b80      0x340 ../blockset/rtw/lib/HANcoder_Olimexino_STM32_F3_RTL.a(queue.obj)
 .debug_frame   0x00000ec0      0x6f4 ../blockset/rtw/lib/HANcoder_Olimexino_STM32_F3_RTL.a(tasks.obj)
 .debug_frame   0x000015b4      0x1e4 ../blockset/rtw/lib/HANcoder_Olimexino_STM32_F3_RTL.a(timers.obj)
 .debug_frame   0x00001798      0x18c ../blockset/rtw/lib/HANcoder_Olimexino_STM32_F3_RTL.a(port.obj)
 .debug_frame   0x00001924       0xc4 ../blockset/rtw/lib/HANcoder_Olimexino_STM32_F3_RTL.a(heap_4.obj)
 .debug_frame   0x000019e8       0x7c ../blockset/rtw/lib/HANcoder_Olimexino_STM32_F3_RTL.a(misc.obj)
 .debug_frame   0x00001a64      0x4dc ../blockset/rtw/lib/HANcoder_Olimexino_STM32_F3_RTL.a(stm32f30x_adc.obj)
 .debug_frame   0x00001f40      0x234 ../blockset/rtw/lib/HANcoder_Olimexino_STM32_F3_RTL.a(stm32f30x_can.obj)
 .debug_frame   0x00002174       0xdc ../blockset/rtw/lib/HANcoder_Olimexino_STM32_F3_RTL.a(stm32f30x_dma.obj)
 .debug_frame   0x00002250      0x150 ../blockset/rtw/lib/HANcoder_Olimexino_STM32_F3_RTL.a(stm32f30x_gpio.obj)
 .debug_frame   0x000023a0      0x29c ../blockset/rtw/lib/HANcoder_Olimexino_STM32_F3_RTL.a(stm32f30x_rcc.obj)
 .debug_frame   0x0000263c       0xd0 ../blockset/rtw/lib/HANcoder_Olimexino_STM32_F3_RTL.a(vectors.obj)
 .debug_frame   0x0000270c       0xa4 ../blockset/rtw/lib/HANcoder_Olimexino_STM32_F3_RTL.a(quadencoder.obj)
 .debug_frame   0x000027b0      0x218 ../blockset/rtw/lib/HANcoder_Olimexino_STM32_F3_RTL.a(errorcodes.obj)
 .debug_frame   0x000029c8       0x60 ../blockset/rtw/lib/HANcoder_Olimexino_STM32_F3_RTL.a(eeprom.obj)
 .debug_frame   0x00002a28       0x20 ../blockset/rtw/lib/HANcoder_Olimexino_STM32_F3_RTL.a(reset.obj)
 .debug_frame   0x00002a48      0x284 ../blockset/rtw/lib/HANcoder_Olimexino_STM32_F3_RTL.a(eeprom_sim.obj)
 .debug_frame   0x00002ccc      0x184 ../blockset/rtw/lib/HANcoder_Olimexino_STM32_F3_RTL.a(pwmout.obj)
 .debug_frame   0x00002e50      0x324 ../blockset/rtw/lib/HANcoder_Olimexino_STM32_F3_RTL.a(timein.obj)
 .debug_frame   0x00003174      0x14c ../blockset/rtw/lib/HANcoder_Olimexino_STM32_F3_RTL.a(usbcom.obj)
 .debug_frame   0x000032c0       0x9c ../blockset/rtw/lib/HANcoder_Olimexino_STM32_F3_RTL.a(usb_pwr.obj)
 .debug_frame   0x0000335c       0x30 ../blockset/rtw/lib/HANcoder_Olimexino_STM32_F3_RTL.a(stackOverflowHook.obj)
 .debug_frame   0x0000338c      0x100 ../blockset/rtw/lib/HANcoder_Olimexino_STM32_F3_RTL.a(mac.obj)
 .debug_frame   0x0000348c      0x194 ../blockset/rtw/lib/HANcoder_Olimexino_STM32_F3_RTL.a(uart.obj)
 .debug_frame   0x00003620      0x27c ../blockset/rtw/lib/HANcoder_Olimexino_STM32_F3_RTL.a(timeout.obj)
 .debug_frame   0x0000389c       0x30 ../blockset/rtw/lib/HANcoder_Olimexino_STM32_F3_RTL.a(cstart.obj)
 .debug_frame   0x000038cc       0x8c ../blockset/rtw/lib/HANcoder_Olimexino_STM32_F3_RTL.a(list.obj)
 .debug_frame   0x00003958       0x3c ../blockset/rtw/lib/HANcoder_Olimexino_STM32_F3_RTL.a(system_stm32f30x.obj)
 .debug_frame   0x00003994      0x8b0 ../blockset/rtw/lib/HANcoder_Olimexino_STM32_F3_RTL.a(stm32f30x_tim.obj)
 .debug_frame   0x00004244      0x3b8 ../blockset/rtw/lib/HANcoder_Olimexino_STM32_F3_RTL.a(stm32f30x_usart.obj)
 .debug_frame   0x000045fc       0x30 ../blockset/rtw/lib/HANcoder_Olimexino_STM32_F3_RTL.a(usb_init.obj)
 .debug_frame   0x0000462c       0x3c ../blockset/rtw/lib/HANcoder_Olimexino_STM32_F3_RTL.a(usb_mem.obj)
 .debug_frame   0x00004668      0x3fc ../blockset/rtw/lib/HANcoder_Olimexino_STM32_F3_RTL.a(usb_regs.obj)
 .debug_frame   0x00004a64       0x40 ../blockset/rtw/lib/HANcoder_Olimexino_STM32_F3_RTL.a(usb_istr.obj)
 .debug_frame   0x00004aa4      0x114 ../blockset/rtw/lib/HANcoder_Olimexino_STM32_F3_RTL.a(usb_prop.obj)
 .debug_frame   0x00004bb8      0x25c ../blockset/rtw/lib/HANcoder_Olimexino_STM32_F3_RTL.a(usb_core.obj)
 .debug_frame   0x00004e14       0x6c ../blockset/rtw/lib/HANcoder_Olimexino_STM32_F3_RTL.a(usb_int.obj)
 .debug_frame   0x00004e80       0x6c ../blockset/rtw/lib/HANcoder_Olimexino_STM32_F3_RTL.a(usb_sil.obj)
 .debug_frame   0x00004eec       0x70 ../blockset/rtw/lib/HANcoder_Olimexino_STM32_F3_RTL.a(usb_endp.obj)
 .debug_frame   0x00004f5c       0x30 c:/program files (x86)/gnu arm embedded toolchain/10 2021.10/bin/../lib/gcc/arm-none-eabi/10.3.1/../../../../arm-none-eabi/lib/thumb/v7e-m+fp/softfp\libm.a(lib_a-s_floor.o)
 .debug_frame   0x00004f8c       0xac c:/program files (x86)/gnu arm embedded toolchain/10 2021.10/bin/../lib/gcc/arm-none-eabi/10.3.1/thumb/v7e-m+fp/softfp\libgcc.a(_arm_addsubdf3.o)
 .debug_frame   0x00005038       0x50 c:/program files (x86)/gnu arm embedded toolchain/10 2021.10/bin/../lib/gcc/arm-none-eabi/10.3.1/thumb/v7e-m+fp/softfp\libgcc.a(_arm_muldivdf3.o)
 .debug_frame   0x00005088       0xc4 c:/program files (x86)/gnu arm embedded toolchain/10 2021.10/bin/../lib/gcc/arm-none-eabi/10.3.1/thumb/v7e-m+fp/softfp\libgcc.a(_arm_cmpdf2.o)
 .debug_frame   0x0000514c       0x24 c:/program files (x86)/gnu arm embedded toolchain/10 2021.10/bin/../lib/gcc/arm-none-eabi/10.3.1/thumb/v7e-m+fp/softfp\libgcc.a(_arm_fixdfsi.o)
 .debug_frame   0x00005170       0x24 c:/program files (x86)/gnu arm embedded toolchain/10 2021.10/bin/../lib/gcc/arm-none-eabi/10.3.1/thumb/v7e-m+fp/softfp\libgcc.a(_arm_fixunsdfsi.o)
 .debug_frame   0x00005194       0x2c c:/program files (x86)/gnu arm embedded toolchain/10 2021.10/bin/../lib/gcc/arm-none-eabi/10.3.1/../../../../arm-none-eabi/lib/thumb/v7e-m+fp/softfp\libg.a(lib_a-memset.o)

.debug_str      0x00000000     0x9ae3
 *(.debug_str)
 .debug_str     0x00000000      0x1ee HANcoder_Olimexino_F3_ACC_data.obj
                                0x236 (size before relaxing)
 .debug_str     0x000001ee       0xea model.obj
                                0x2e3 (size before relaxing)
 .debug_str     0x000002d8      0x269 XcpTargetSpecific.obj
                                0x496 (size before relaxing)
 .debug_str     0x00000541      0x8fe HANcoder_Olimexino_F3_ACC.obj
                                0xc19 (size before relaxing)
 .debug_str     0x00000e3f      0x586 ../blockset/rtw/lib/HANcoder_Olimexino_STM32_F3_RTL.a(XcpStack.obj)
                                0x747 (size before relaxing)
 .debug_str     0x000013c5      0x103 ../blockset/rtw/lib/HANcoder_Olimexino_STM32_F3_RTL.a(app.obj)
                                0x335 (size before relaxing)
 .debug_str     0x000014c8      0x7a8 ../blockset/rtw/lib/HANcoder_Olimexino_STM32_F3_RTL.a(anin.obj)
                                0xa64 (size before relaxing)
 .debug_str     0x00001c70      0xe33 ../blockset/rtw/lib/HANcoder_Olimexino_STM32_F3_RTL.a(can.obj)
                               0x138d (size before relaxing)
 .debug_str     0x00002aa3      0x2f0 ../blockset/rtw/lib/HANcoder_Olimexino_STM32_F3_RTL.a(canio.obj)
                                0x611 (size before relaxing)
 .debug_str     0x00002d93       0x79 ../blockset/rtw/lib/HANcoder_Olimexino_STM32_F3_RTL.a(digin.obj)
                                0x4ea (size before relaxing)
 .debug_str     0x00002e0c      0x47e ../blockset/rtw/lib/HANcoder_Olimexino_STM32_F3_RTL.a(os.obj)
                                0x7b0 (size before relaxing)
 .debug_str     0x0000328a      0x5e9 ../blockset/rtw/lib/HANcoder_Olimexino_STM32_F3_RTL.a(queue.obj)
                                0x92d (size before relaxing)
 .debug_str     0x00003873      0x8c8 ../blockset/rtw/lib/HANcoder_Olimexino_STM32_F3_RTL.a(tasks.obj)
                                0xf2d (size before relaxing)
 .debug_str     0x0000413b      0x389 ../blockset/rtw/lib/HANcoder_Olimexino_STM32_F3_RTL.a(timers.obj)
                                0x877 (size before relaxing)
 .debug_str     0x000044c4      0x1b7 ../blockset/rtw/lib/HANcoder_Olimexino_STM32_F3_RTL.a(port.obj)
                                0x51f (size before relaxing)
 .debug_str     0x0000467b      0x1d6 ../blockset/rtw/lib/HANcoder_Olimexino_STM32_F3_RTL.a(heap_4.obj)
                                0x42e (size before relaxing)
 .debug_str     0x00004851      0x199 ../blockset/rtw/lib/HANcoder_Olimexino_STM32_F3_RTL.a(misc.obj)
                                0x486 (size before relaxing)
 .debug_str     0x000049ea      0x74f ../blockset/rtw/lib/HANcoder_Olimexino_STM32_F3_RTL.a(stm32f30x_adc.obj)
                                0xc8d (size before relaxing)
 .debug_str     0x00005139      0x240 ../blockset/rtw/lib/HANcoder_Olimexino_STM32_F3_RTL.a(stm32f30x_can.obj)
                                0x80d (size before relaxing)
 .debug_str     0x00005379      0x10a ../blockset/rtw/lib/HANcoder_Olimexino_STM32_F3_RTL.a(stm32f30x_dma.obj)
                                0x44a (size before relaxing)
 .debug_str     0x00005483      0x159 ../blockset/rtw/lib/HANcoder_Olimexino_STM32_F3_RTL.a(stm32f30x_gpio.obj)
                                0x570 (size before relaxing)
 .debug_str     0x000055dc      0x5b3 ../blockset/rtw/lib/HANcoder_Olimexino_STM32_F3_RTL.a(stm32f30x_rcc.obj)
                                0x8b6 (size before relaxing)
 .debug_str     0x00005b8f      0x1e9 ../blockset/rtw/lib/HANcoder_Olimexino_STM32_F3_RTL.a(vectors.obj)
                                0x3c5 (size before relaxing)
 .debug_str     0x00005d78      0x327 ../blockset/rtw/lib/HANcoder_Olimexino_STM32_F3_RTL.a(quadencoder.obj)
                                0x75e (size before relaxing)
 .debug_str     0x0000609f      0x357 ../blockset/rtw/lib/HANcoder_Olimexino_STM32_F3_RTL.a(errorcodes.obj)
                                0x5c1 (size before relaxing)
 .debug_str     0x000063f6       0xb6 ../blockset/rtw/lib/HANcoder_Olimexino_STM32_F3_RTL.a(eeprom.obj)
                                0x2a5 (size before relaxing)
 .debug_str     0x000064ac       0x35 ../blockset/rtw/lib/HANcoder_Olimexino_STM32_F3_RTL.a(reset.obj)
                                0x2a5 (size before relaxing)
 .debug_str     0x000064e1      0x1fc ../blockset/rtw/lib/HANcoder_Olimexino_STM32_F3_RTL.a(eeprom_sim.obj)
                                0x519 (size before relaxing)
 .debug_str     0x000066dd      0x392 ../blockset/rtw/lib/HANcoder_Olimexino_STM32_F3_RTL.a(pwmout.obj)
                                0xf32 (size before relaxing)
 .debug_str     0x00006a6f      0x3af ../blockset/rtw/lib/HANcoder_Olimexino_STM32_F3_RTL.a(timein.obj)
                                0xfd0 (size before relaxing)
 .debug_str     0x00006e1e      0x38a ../blockset/rtw/lib/HANcoder_Olimexino_STM32_F3_RTL.a(usbcom.obj)
                                0xd5c (size before relaxing)
 .debug_str     0x000071a8      0x147 ../blockset/rtw/lib/HANcoder_Olimexino_STM32_F3_RTL.a(usb_pwr.obj)
                                0x42a (size before relaxing)
 .debug_str     0x000072ef       0x3b ../blockset/rtw/lib/HANcoder_Olimexino_STM32_F3_RTL.a(stackOverflowHook.obj)
                                0x474 (size before relaxing)
 .debug_str     0x0000732a      0x13d ../blockset/rtw/lib/HANcoder_Olimexino_STM32_F3_RTL.a(mac.obj)
                                0x4fd (size before relaxing)
 .debug_str     0x00007467      0x2d5 ../blockset/rtw/lib/HANcoder_Olimexino_STM32_F3_RTL.a(uart.obj)
                                0xdb0 (size before relaxing)
 .debug_str     0x0000773c      0x24d ../blockset/rtw/lib/HANcoder_Olimexino_STM32_F3_RTL.a(timeout.obj)
                                0xf8a (size before relaxing)
 .debug_str     0x00007989       0x68 ../blockset/rtw/lib/HANcoder_Olimexino_STM32_F3_RTL.a(cstart.obj)
                                0x282 (size before relaxing)
 .debug_str     0x000079f1       0x77 ../blockset/rtw/lib/HANcoder_Olimexino_STM32_F3_RTL.a(list.obj)
                                0x356 (size before relaxing)
 .debug_str     0x00007a68       0x77 ../blockset/rtw/lib/HANcoder_Olimexino_STM32_F3_RTL.a(system_stm32f30x.obj)
                                0x3af (size before relaxing)
 .debug_str     0x00007adf      0x9df ../blockset/rtw/lib/HANcoder_Olimexino_STM32_F3_RTL.a(stm32f30x_tim.obj)
                               0x104c (size before relaxing)
 .debug_str     0x000084be      0x60b ../blockset/rtw/lib/HANcoder_Olimexino_STM32_F3_RTL.a(stm32f30x_usart.obj)
                                0xb01 (size before relaxing)
 .debug_str     0x00008ac9      0x1e9 ../blockset/rtw/lib/HANcoder_Olimexino_STM32_F3_RTL.a(usb_init.obj)
                                0x5f5 (size before relaxing)
 .debug_str     0x00008cb2       0x90 ../blockset/rtw/lib/HANcoder_Olimexino_STM32_F3_RTL.a(usb_mem.obj)
                                0x2b5 (size before relaxing)
 .debug_str     0x00008d42      0x370 ../blockset/rtw/lib/HANcoder_Olimexino_STM32_F3_RTL.a(usb_regs.obj)
                                0x5b5 (size before relaxing)
 .debug_str     0x000090b2       0xd1 ../blockset/rtw/lib/HANcoder_Olimexino_STM32_F3_RTL.a(usb_desc.obj)
                                0x2d8 (size before relaxing)
 .debug_str     0x00009183       0x6d ../blockset/rtw/lib/HANcoder_Olimexino_STM32_F3_RTL.a(usb_istr.obj)
                                0x3b3 (size before relaxing)
 .debug_str     0x000091f0      0x365 ../blockset/rtw/lib/HANcoder_Olimexino_STM32_F3_RTL.a(usb_prop.obj)
                                0xaac (size before relaxing)
 .debug_str     0x00009555      0x41b ../blockset/rtw/lib/HANcoder_Olimexino_STM32_F3_RTL.a(usb_core.obj)
                                0xbac (size before relaxing)
 .debug_str     0x00009970       0x5a ../blockset/rtw/lib/HANcoder_Olimexino_STM32_F3_RTL.a(usb_int.obj)
                                0x2dc (size before relaxing)
 .debug_str     0x000099ca       0xa2 ../blockset/rtw/lib/HANcoder_Olimexino_STM32_F3_RTL.a(usb_sil.obj)
                                0x31d (size before relaxing)
 .debug_str     0x00009a6c       0x77 ../blockset/rtw/lib/HANcoder_Olimexino_STM32_F3_RTL.a(usb_endp.obj)
                                0x3b8 (size before relaxing)

.debug_loc      0x00000000    0x11973
 *(.debug_loc)
 .debug_loc     0x00000000       0xd1 model.obj
 .debug_loc     0x000000d1      0x286 XcpTargetSpecific.obj
 .debug_loc     0x00000357      0x96a HANcoder_Olimexino_F3_ACC.obj
 .debug_loc     0x00000cc1     0x1264 ../blockset/rtw/lib/HANcoder_Olimexino_STM32_F3_RTL.a(XcpStack.obj)
 .debug_loc     0x00001f25       0x63 ../blockset/rtw/lib/HANcoder_Olimexino_STM32_F3_RTL.a(app.obj)
 .debug_loc     0x00001f88      0x4b1 ../blockset/rtw/lib/HANcoder_Olimexino_STM32_F3_RTL.a(anin.obj)
 .debug_loc     0x00002439      0x97f ../blockset/rtw/lib/HANcoder_Olimexino_STM32_F3_RTL.a(can.obj)
 .debug_loc     0x00002db8      0x7cc ../blockset/rtw/lib/HANcoder_Olimexino_STM32_F3_RTL.a(canio.obj)
 .debug_loc     0x00003584       0xe0 ../blockset/rtw/lib/HANcoder_Olimexino_STM32_F3_RTL.a(digin.obj)
 .debug_loc     0x00003664      0x5d3 ../blockset/rtw/lib/HANcoder_Olimexino_STM32_F3_RTL.a(os.obj)
 .debug_loc     0x00003c37     0x1253 ../blockset/rtw/lib/HANcoder_Olimexino_STM32_F3_RTL.a(queue.obj)
 .debug_loc     0x00004e8a     0x1b0c ../blockset/rtw/lib/HANcoder_Olimexino_STM32_F3_RTL.a(tasks.obj)
 .debug_loc     0x00006996      0xaf1 ../blockset/rtw/lib/HANcoder_Olimexino_STM32_F3_RTL.a(timers.obj)
 .debug_loc     0x00007487       0xbd ../blockset/rtw/lib/HANcoder_Olimexino_STM32_F3_RTL.a(port.obj)
 .debug_loc     0x00007544      0x2f7 ../blockset/rtw/lib/HANcoder_Olimexino_STM32_F3_RTL.a(heap_4.obj)
 .debug_loc     0x0000783b      0x186 ../blockset/rtw/lib/HANcoder_Olimexino_STM32_F3_RTL.a(misc.obj)
 .debug_loc     0x000079c1      0xefc ../blockset/rtw/lib/HANcoder_Olimexino_STM32_F3_RTL.a(stm32f30x_adc.obj)
 .debug_loc     0x000088bd      0x928 ../blockset/rtw/lib/HANcoder_Olimexino_STM32_F3_RTL.a(stm32f30x_can.obj)
 .debug_loc     0x000091e5       0xfe ../blockset/rtw/lib/HANcoder_Olimexino_STM32_F3_RTL.a(stm32f30x_dma.obj)
 .debug_loc     0x000092e3      0x351 ../blockset/rtw/lib/HANcoder_Olimexino_STM32_F3_RTL.a(stm32f30x_gpio.obj)
 .debug_loc     0x00009634      0xb6f ../blockset/rtw/lib/HANcoder_Olimexino_STM32_F3_RTL.a(stm32f30x_rcc.obj)
 .debug_loc     0x0000a1a3      0x17e ../blockset/rtw/lib/HANcoder_Olimexino_STM32_F3_RTL.a(quadencoder.obj)
 .debug_loc     0x0000a321      0x9c0 ../blockset/rtw/lib/HANcoder_Olimexino_STM32_F3_RTL.a(errorcodes.obj)
 .debug_loc     0x0000ace1       0xbd ../blockset/rtw/lib/HANcoder_Olimexino_STM32_F3_RTL.a(eeprom.obj)
 .debug_loc     0x0000ad9e      0xacc ../blockset/rtw/lib/HANcoder_Olimexino_STM32_F3_RTL.a(eeprom_sim.obj)
 .debug_loc     0x0000b86a      0x2fd ../blockset/rtw/lib/HANcoder_Olimexino_STM32_F3_RTL.a(pwmout.obj)
 .debug_loc     0x0000bb67      0x3ff ../blockset/rtw/lib/HANcoder_Olimexino_STM32_F3_RTL.a(timein.obj)
 .debug_loc     0x0000bf66      0x28a ../blockset/rtw/lib/HANcoder_Olimexino_STM32_F3_RTL.a(usbcom.obj)
 .debug_loc     0x0000c1f0      0x10c ../blockset/rtw/lib/HANcoder_Olimexino_STM32_F3_RTL.a(usb_pwr.obj)
 .debug_loc     0x0000c2fc       0x42 ../blockset/rtw/lib/HANcoder_Olimexino_STM32_F3_RTL.a(stackOverflowHook.obj)
 .debug_loc     0x0000c33e      0x19f ../blockset/rtw/lib/HANcoder_Olimexino_STM32_F3_RTL.a(mac.obj)
 .debug_loc     0x0000c4dd      0x47e ../blockset/rtw/lib/HANcoder_Olimexino_STM32_F3_RTL.a(uart.obj)
 .debug_loc     0x0000c95b      0x47d ../blockset/rtw/lib/HANcoder_Olimexino_STM32_F3_RTL.a(timeout.obj)
 .debug_loc     0x0000cdd8       0x2b ../blockset/rtw/lib/HANcoder_Olimexino_STM32_F3_RTL.a(cstart.obj)
 .debug_loc     0x0000ce03       0x69 ../blockset/rtw/lib/HANcoder_Olimexino_STM32_F3_RTL.a(list.obj)
 .debug_loc     0x0000ce6c      0x109 ../blockset/rtw/lib/HANcoder_Olimexino_STM32_F3_RTL.a(system_stm32f30x.obj)
 .debug_loc     0x0000cf75     0x25d8 ../blockset/rtw/lib/HANcoder_Olimexino_STM32_F3_RTL.a(stm32f30x_tim.obj)
 .debug_loc     0x0000f54d      0x95e ../blockset/rtw/lib/HANcoder_Olimexino_STM32_F3_RTL.a(stm32f30x_usart.obj)
 .debug_loc     0x0000feab      0x28e ../blockset/rtw/lib/HANcoder_Olimexino_STM32_F3_RTL.a(usb_mem.obj)
 .debug_loc     0x00010139      0xa2d ../blockset/rtw/lib/HANcoder_Olimexino_STM32_F3_RTL.a(usb_regs.obj)
 .debug_loc     0x00010b66      0x1e1 ../blockset/rtw/lib/HANcoder_Olimexino_STM32_F3_RTL.a(usb_prop.obj)
 .debug_loc     0x00010d47      0xa6f ../blockset/rtw/lib/HANcoder_Olimexino_STM32_F3_RTL.a(usb_core.obj)
 .debug_loc     0x000117b6       0x92 ../blockset/rtw/lib/HANcoder_Olimexino_STM32_F3_RTL.a(usb_int.obj)
 .debug_loc     0x00011848       0xcf ../blockset/rtw/lib/HANcoder_Olimexino_STM32_F3_RTL.a(usb_sil.obj)
 .debug_loc     0x00011917       0x5c ../blockset/rtw/lib/HANcoder_Olimexino_STM32_F3_RTL.a(usb_endp.obj)

.debug_macinfo
 *(.debug_macinfo)

.debug_ranges   0x00000000     0x2758
 *(.debug_ranges)
 .debug_ranges  0x00000000       0x20 model.obj
 .debug_ranges  0x00000020       0x60 XcpTargetSpecific.obj
 .debug_ranges  0x00000080       0xa8 HANcoder_Olimexino_F3_ACC.obj
 .debug_ranges  0x00000128      0x440 ../blockset/rtw/lib/HANcoder_Olimexino_STM32_F3_RTL.a(XcpStack.obj)
 .debug_ranges  0x00000568       0x28 ../blockset/rtw/lib/HANcoder_Olimexino_STM32_F3_RTL.a(app.obj)
 .debug_ranges  0x00000590       0x70 ../blockset/rtw/lib/HANcoder_Olimexino_STM32_F3_RTL.a(anin.obj)
 .debug_ranges  0x00000600       0xf0 ../blockset/rtw/lib/HANcoder_Olimexino_STM32_F3_RTL.a(can.obj)
 .debug_ranges  0x000006f0       0x88 ../blockset/rtw/lib/HANcoder_Olimexino_STM32_F3_RTL.a(canio.obj)
 .debug_ranges  0x00000778       0x18 ../blockset/rtw/lib/HANcoder_Olimexino_STM32_F3_RTL.a(digin.obj)
 .debug_ranges  0x00000790      0x220 ../blockset/rtw/lib/HANcoder_Olimexino_STM32_F3_RTL.a(os.obj)
 .debug_ranges  0x000009b0      0x100 ../blockset/rtw/lib/HANcoder_Olimexino_STM32_F3_RTL.a(queue.obj)
 .debug_ranges  0x00000ab0      0x2e0 ../blockset/rtw/lib/HANcoder_Olimexino_STM32_F3_RTL.a(tasks.obj)
 .debug_ranges  0x00000d90       0xf8 ../blockset/rtw/lib/HANcoder_Olimexino_STM32_F3_RTL.a(timers.obj)
 .debug_ranges  0x00000e88       0xa0 ../blockset/rtw/lib/HANcoder_Olimexino_STM32_F3_RTL.a(port.obj)
 .debug_ranges  0x00000f28       0x50 ../blockset/rtw/lib/HANcoder_Olimexino_STM32_F3_RTL.a(heap_4.obj)
 .debug_ranges  0x00000f78       0x30 ../blockset/rtw/lib/HANcoder_Olimexino_STM32_F3_RTL.a(misc.obj)
 .debug_ranges  0x00000fa8      0x210 ../blockset/rtw/lib/HANcoder_Olimexino_STM32_F3_RTL.a(stm32f30x_adc.obj)
 .debug_ranges  0x000011b8      0x138 ../blockset/rtw/lib/HANcoder_Olimexino_STM32_F3_RTL.a(stm32f30x_can.obj)
 .debug_ranges  0x000012f0       0x50 ../blockset/rtw/lib/HANcoder_Olimexino_STM32_F3_RTL.a(stm32f30x_dma.obj)
 .debug_ranges  0x00001340       0x70 ../blockset/rtw/lib/HANcoder_Olimexino_STM32_F3_RTL.a(stm32f30x_gpio.obj)
 .debug_ranges  0x000013b0      0x160 ../blockset/rtw/lib/HANcoder_Olimexino_STM32_F3_RTL.a(stm32f30x_rcc.obj)
 .debug_ranges  0x00001510       0x38 ../blockset/rtw/lib/HANcoder_Olimexino_STM32_F3_RTL.a(vectors.obj)
 .debug_ranges  0x00001548       0x28 ../blockset/rtw/lib/HANcoder_Olimexino_STM32_F3_RTL.a(quadencoder.obj)
 .debug_ranges  0x00001570       0xd0 ../blockset/rtw/lib/HANcoder_Olimexino_STM32_F3_RTL.a(errorcodes.obj)
 .debug_ranges  0x00001640       0x30 ../blockset/rtw/lib/HANcoder_Olimexino_STM32_F3_RTL.a(eeprom.obj)
 .debug_ranges  0x00001670       0x10 ../blockset/rtw/lib/HANcoder_Olimexino_STM32_F3_RTL.a(reset.obj)
 .debug_ranges  0x00001680       0x90 ../blockset/rtw/lib/HANcoder_Olimexino_STM32_F3_RTL.a(eeprom_sim.obj)
 .debug_ranges  0x00001710       0x58 ../blockset/rtw/lib/HANcoder_Olimexino_STM32_F3_RTL.a(pwmout.obj)
 .debug_ranges  0x00001768       0xe0 ../blockset/rtw/lib/HANcoder_Olimexino_STM32_F3_RTL.a(timein.obj)
 .debug_ranges  0x00001848       0x78 ../blockset/rtw/lib/HANcoder_Olimexino_STM32_F3_RTL.a(usbcom.obj)
 .debug_ranges  0x000018c0       0x60 ../blockset/rtw/lib/HANcoder_Olimexino_STM32_F3_RTL.a(usb_pwr.obj)
 .debug_ranges  0x00001920       0x10 ../blockset/rtw/lib/HANcoder_Olimexino_STM32_F3_RTL.a(stackOverflowHook.obj)
 .debug_ranges  0x00001930       0x48 ../blockset/rtw/lib/HANcoder_Olimexino_STM32_F3_RTL.a(mac.obj)
 .debug_ranges  0x00001978       0x60 ../blockset/rtw/lib/HANcoder_Olimexino_STM32_F3_RTL.a(uart.obj)
 .debug_ranges  0x000019d8      0x170 ../blockset/rtw/lib/HANcoder_Olimexino_STM32_F3_RTL.a(timeout.obj)
 .debug_ranges  0x00001b48       0x10 ../blockset/rtw/lib/HANcoder_Olimexino_STM32_F3_RTL.a(cstart.obj)
 .debug_ranges  0x00001b58       0x30 ../blockset/rtw/lib/HANcoder_Olimexino_STM32_F3_RTL.a(list.obj)
 .debug_ranges  0x00001b88       0x30 ../blockset/rtw/lib/HANcoder_Olimexino_STM32_F3_RTL.a(system_stm32f30x.obj)
 .debug_ranges  0x00001bb8      0x3e0 ../blockset/rtw/lib/HANcoder_Olimexino_STM32_F3_RTL.a(stm32f30x_tim.obj)
 .debug_ranges  0x00001f98      0x190 ../blockset/rtw/lib/HANcoder_Olimexino_STM32_F3_RTL.a(stm32f30x_usart.obj)
 .debug_ranges  0x00002128       0x10 ../blockset/rtw/lib/HANcoder_Olimexino_STM32_F3_RTL.a(usb_init.obj)
 .debug_ranges  0x00002138       0x18 ../blockset/rtw/lib/HANcoder_Olimexino_STM32_F3_RTL.a(usb_mem.obj)
 .debug_ranges  0x00002150      0x360 ../blockset/rtw/lib/HANcoder_Olimexino_STM32_F3_RTL.a(usb_regs.obj)
 .debug_ranges  0x000024b0       0x10 ../blockset/rtw/lib/HANcoder_Olimexino_STM32_F3_RTL.a(usb_istr.obj)
 .debug_ranges  0x000024c0       0x70 ../blockset/rtw/lib/HANcoder_Olimexino_STM32_F3_RTL.a(usb_prop.obj)
 .debug_ranges  0x00002530      0x1b8 ../blockset/rtw/lib/HANcoder_Olimexino_STM32_F3_RTL.a(usb_core.obj)
 .debug_ranges  0x000026e8       0x30 ../blockset/rtw/lib/HANcoder_Olimexino_STM32_F3_RTL.a(usb_int.obj)
 .debug_ranges  0x00002718       0x20 ../blockset/rtw/lib/HANcoder_Olimexino_STM32_F3_RTL.a(usb_sil.obj)
 .debug_ranges  0x00002738       0x20 ../blockset/rtw/lib/HANcoder_Olimexino_STM32_F3_RTL.a(usb_endp.obj)

.comment        0x00000000       0xb7
 .comment       0x00000000       0x49 HANcoder_Olimexino_F3_ACC_data.obj
                                 0x4a (size before relaxing)
 .comment       0x00000049       0x4a model.obj
 .comment       0x00000049       0x4a XcpTargetSpecific.obj
 .comment       0x00000049       0x4a HANcoder_Olimexino_F3_ACC.obj
 .comment       0x00000049       0x6e ../blockset/rtw/lib/HANcoder_Olimexino_STM32_F3_RTL.a(XcpStack.obj)
                                 0x6f (size before relaxing)
 .comment       0x000000b7       0x6f ../blockset/rtw/lib/HANcoder_Olimexino_STM32_F3_RTL.a(app.obj)
 .comment       0x000000b7       0x6f ../blockset/rtw/lib/HANcoder_Olimexino_STM32_F3_RTL.a(anin.obj)
 .comment       0x000000b7       0x6f ../blockset/rtw/lib/HANcoder_Olimexino_STM32_F3_RTL.a(can.obj)
 .comment       0x000000b7       0x6f ../blockset/rtw/lib/HANcoder_Olimexino_STM32_F3_RTL.a(canio.obj)
 .comment       0x000000b7       0x6f ../blockset/rtw/lib/HANcoder_Olimexino_STM32_F3_RTL.a(digin.obj)
 .comment       0x000000b7       0x6f ../blockset/rtw/lib/HANcoder_Olimexino_STM32_F3_RTL.a(os.obj)
 .comment       0x000000b7       0x6f ../blockset/rtw/lib/HANcoder_Olimexino_STM32_F3_RTL.a(queue.obj)
 .comment       0x000000b7       0x6f ../blockset/rtw/lib/HANcoder_Olimexino_STM32_F3_RTL.a(tasks.obj)
 .comment       0x000000b7       0x6f ../blockset/rtw/lib/HANcoder_Olimexino_STM32_F3_RTL.a(timers.obj)
 .comment       0x000000b7       0x6f ../blockset/rtw/lib/HANcoder_Olimexino_STM32_F3_RTL.a(port.obj)
 .comment       0x000000b7       0x6f ../blockset/rtw/lib/HANcoder_Olimexino_STM32_F3_RTL.a(heap_4.obj)
 .comment       0x000000b7       0x6f ../blockset/rtw/lib/HANcoder_Olimexino_STM32_F3_RTL.a(misc.obj)
 .comment       0x000000b7       0x6f ../blockset/rtw/lib/HANcoder_Olimexino_STM32_F3_RTL.a(stm32f30x_adc.obj)
 .comment       0x000000b7       0x6f ../blockset/rtw/lib/HANcoder_Olimexino_STM32_F3_RTL.a(stm32f30x_can.obj)
 .comment       0x000000b7       0x6f ../blockset/rtw/lib/HANcoder_Olimexino_STM32_F3_RTL.a(stm32f30x_dma.obj)
 .comment       0x000000b7       0x6f ../blockset/rtw/lib/HANcoder_Olimexino_STM32_F3_RTL.a(stm32f30x_gpio.obj)
 .comment       0x000000b7       0x6f ../blockset/rtw/lib/HANcoder_Olimexino_STM32_F3_RTL.a(stm32f30x_rcc.obj)
 .comment       0x000000b7       0x6f ../blockset/rtw/lib/HANcoder_Olimexino_STM32_F3_RTL.a(vectors.obj)
 .comment       0x000000b7       0x6f ../blockset/rtw/lib/HANcoder_Olimexino_STM32_F3_RTL.a(quadencoder.obj)
 .comment       0x000000b7       0x6f ../blockset/rtw/lib/HANcoder_Olimexino_STM32_F3_RTL.a(errorcodes.obj)
 .comment       0x000000b7       0x6f ../blockset/rtw/lib/HANcoder_Olimexino_STM32_F3_RTL.a(eeprom.obj)
 .comment       0x000000b7       0x6f ../blockset/rtw/lib/HANcoder_Olimexino_STM32_F3_RTL.a(reset.obj)
 .comment       0x000000b7       0x6f ../blockset/rtw/lib/HANcoder_Olimexino_STM32_F3_RTL.a(eeprom_sim.obj)
 .comment       0x000000b7       0x6f ../blockset/rtw/lib/HANcoder_Olimexino_STM32_F3_RTL.a(pwmout.obj)
 .comment       0x000000b7       0x6f ../blockset/rtw/lib/HANcoder_Olimexino_STM32_F3_RTL.a(timein.obj)
 .comment       0x000000b7       0x6f ../blockset/rtw/lib/HANcoder_Olimexino_STM32_F3_RTL.a(usbcom.obj)
 .comment       0x000000b7       0x6f ../blockset/rtw/lib/HANcoder_Olimexino_STM32_F3_RTL.a(usb_pwr.obj)
 .comment       0x000000b7       0x6f ../blockset/rtw/lib/HANcoder_Olimexino_STM32_F3_RTL.a(stackOverflowHook.obj)
 .comment       0x000000b7       0x6f ../blockset/rtw/lib/HANcoder_Olimexino_STM32_F3_RTL.a(mac.obj)
 .comment       0x000000b7       0x6f ../blockset/rtw/lib/HANcoder_Olimexino_STM32_F3_RTL.a(uart.obj)
 .comment       0x000000b7       0x6f ../blockset/rtw/lib/HANcoder_Olimexino_STM32_F3_RTL.a(timeout.obj)
 .comment       0x000000b7       0x6f ../blockset/rtw/lib/HANcoder_Olimexino_STM32_F3_RTL.a(cstart.obj)
 .comment       0x000000b7       0x6f ../blockset/rtw/lib/HANcoder_Olimexino_STM32_F3_RTL.a(list.obj)
 .comment       0x000000b7       0x6f ../blockset/rtw/lib/HANcoder_Olimexino_STM32_F3_RTL.a(system_stm32f30x.obj)
 .comment       0x000000b7       0x6f ../blockset/rtw/lib/HANcoder_Olimexino_STM32_F3_RTL.a(stm32f30x_tim.obj)
 .comment       0x000000b7       0x6f ../blockset/rtw/lib/HANcoder_Olimexino_STM32_F3_RTL.a(stm32f30x_usart.obj)
 .comment       0x000000b7       0x6f ../blockset/rtw/lib/HANcoder_Olimexino_STM32_F3_RTL.a(usb_init.obj)
 .comment       0x000000b7       0x6f ../blockset/rtw/lib/HANcoder_Olimexino_STM32_F3_RTL.a(usb_mem.obj)
 .comment       0x000000b7       0x6f ../blockset/rtw/lib/HANcoder_Olimexino_STM32_F3_RTL.a(usb_regs.obj)
 .comment       0x000000b7       0x6f ../blockset/rtw/lib/HANcoder_Olimexino_STM32_F3_RTL.a(usb_desc.obj)
 .comment       0x000000b7       0x6f ../blockset/rtw/lib/HANcoder_Olimexino_STM32_F3_RTL.a(usb_istr.obj)
 .comment       0x000000b7       0x6f ../blockset/rtw/lib/HANcoder_Olimexino_STM32_F3_RTL.a(usb_prop.obj)
 .comment       0x000000b7       0x6f ../blockset/rtw/lib/HANcoder_Olimexino_STM32_F3_RTL.a(usb_core.obj)
 .comment       0x000000b7       0x6f ../blockset/rtw/lib/HANcoder_Olimexino_STM32_F3_RTL.a(usb_int.obj)
 .comment       0x000000b7       0x6f ../blockset/rtw/lib/HANcoder_Olimexino_STM32_F3_RTL.a(usb_sil.obj)
 .comment       0x000000b7       0x6f ../blockset/rtw/lib/HANcoder_Olimexino_STM32_F3_RTL.a(usb_endp.obj)

.debug_weaknames
 *(.debug_weaknames)

.debug_funcnames
 *(.debug_funcnames)

.debug_typenames
 *(.debug_typenames)

.debug_varnames
 *(.debug_varnames)

.note.gnu.arm.ident
 *(.note.gnu.arm.ident)

.ARM.attributes
                0x00000000       0x30
 *(.ARM.attributes)
 .ARM.attributes
                0x00000000       0x32 HANcoder_Olimexino_F3_ACC_data.obj
 .ARM.attributes
                0x00000032       0x32 model.obj
 .ARM.attributes
                0x00000064       0x32 XcpTargetSpecific.obj
 .ARM.attributes
                0x00000096       0x32 HANcoder_Olimexino_F3_ACC.obj
 .ARM.attributes
                0x000000c8       0x37 ../blockset/rtw/lib/HANcoder_Olimexino_STM32_F3_RTL.a(XcpStack.obj)
 .ARM.attributes
                0x000000ff       0x37 ../blockset/rtw/lib/HANcoder_Olimexino_STM32_F3_RTL.a(app.obj)
 .ARM.attributes
                0x00000136       0x37 ../blockset/rtw/lib/HANcoder_Olimexino_STM32_F3_RTL.a(anin.obj)
 .ARM.attributes
                0x0000016d       0x37 ../blockset/rtw/lib/HANcoder_Olimexino_STM32_F3_RTL.a(can.obj)
 .ARM.attributes
                0x000001a4       0x37 ../blockset/rtw/lib/HANcoder_Olimexino_STM32_F3_RTL.a(canio.obj)
 .ARM.attributes
                0x000001db       0x37 ../blockset/rtw/lib/HANcoder_Olimexino_STM32_F3_RTL.a(digin.obj)
 .ARM.attributes
                0x00000212       0x37 ../blockset/rtw/lib/HANcoder_Olimexino_STM32_F3_RTL.a(os.obj)
 .ARM.attributes
                0x00000249       0x37 ../blockset/rtw/lib/HANcoder_Olimexino_STM32_F3_RTL.a(queue.obj)
 .ARM.attributes
                0x00000280       0x37 ../blockset/rtw/lib/HANcoder_Olimexino_STM32_F3_RTL.a(tasks.obj)
 .ARM.attributes
                0x000002b7       0x37 ../blockset/rtw/lib/HANcoder_Olimexino_STM32_F3_RTL.a(timers.obj)
 .ARM.attributes
                0x000002ee       0x37 ../blockset/rtw/lib/HANcoder_Olimexino_STM32_F3_RTL.a(port.obj)
 .ARM.attributes
                0x00000325       0x37 ../blockset/rtw/lib/HANcoder_Olimexino_STM32_F3_RTL.a(heap_4.obj)
 .ARM.attributes
                0x0000035c       0x37 ../blockset/rtw/lib/HANcoder_Olimexino_STM32_F3_RTL.a(misc.obj)
 .ARM.attributes
                0x00000393       0x37 ../blockset/rtw/lib/HANcoder_Olimexino_STM32_F3_RTL.a(stm32f30x_adc.obj)
 .ARM.attributes
                0x000003ca       0x37 ../blockset/rtw/lib/HANcoder_Olimexino_STM32_F3_RTL.a(stm32f30x_can.obj)
 .ARM.attributes
                0x00000401       0x37 ../blockset/rtw/lib/HANcoder_Olimexino_STM32_F3_RTL.a(stm32f30x_dma.obj)
 .ARM.attributes
                0x00000438       0x37 ../blockset/rtw/lib/HANcoder_Olimexino_STM32_F3_RTL.a(stm32f30x_gpio.obj)
 .ARM.attributes
                0x0000046f       0x37 ../blockset/rtw/lib/HANcoder_Olimexino_STM32_F3_RTL.a(stm32f30x_rcc.obj)
 .ARM.attributes
                0x000004a6       0x37 ../blockset/rtw/lib/HANcoder_Olimexino_STM32_F3_RTL.a(vectors.obj)
 .ARM.attributes
                0x000004dd       0x37 ../blockset/rtw/lib/HANcoder_Olimexino_STM32_F3_RTL.a(quadencoder.obj)
 .ARM.attributes
                0x00000514       0x37 ../blockset/rtw/lib/HANcoder_Olimexino_STM32_F3_RTL.a(errorcodes.obj)
 .ARM.attributes
                0x0000054b       0x37 ../blockset/rtw/lib/HANcoder_Olimexino_STM32_F3_RTL.a(eeprom.obj)
 .ARM.attributes
                0x00000582       0x37 ../blockset/rtw/lib/HANcoder_Olimexino_STM32_F3_RTL.a(reset.obj)
 .ARM.attributes
                0x000005b9       0x37 ../blockset/rtw/lib/HANcoder_Olimexino_STM32_F3_RTL.a(eeprom_sim.obj)
 .ARM.attributes
                0x000005f0       0x37 ../blockset/rtw/lib/HANcoder_Olimexino_STM32_F3_RTL.a(pwmout.obj)
 .ARM.attributes
                0x00000627       0x37 ../blockset/rtw/lib/HANcoder_Olimexino_STM32_F3_RTL.a(timein.obj)
 .ARM.attributes
                0x0000065e       0x37 ../blockset/rtw/lib/HANcoder_Olimexino_STM32_F3_RTL.a(usbcom.obj)
 .ARM.attributes
                0x00000695       0x37 ../blockset/rtw/lib/HANcoder_Olimexino_STM32_F3_RTL.a(usb_pwr.obj)
 .ARM.attributes
                0x000006cc       0x37 ../blockset/rtw/lib/HANcoder_Olimexino_STM32_F3_RTL.a(stackOverflowHook.obj)
 .ARM.attributes
                0x00000703       0x37 ../blockset/rtw/lib/HANcoder_Olimexino_STM32_F3_RTL.a(mac.obj)
 .ARM.attributes
                0x0000073a       0x37 ../blockset/rtw/lib/HANcoder_Olimexino_STM32_F3_RTL.a(uart.obj)
 .ARM.attributes
                0x00000771       0x37 ../blockset/rtw/lib/HANcoder_Olimexino_STM32_F3_RTL.a(timeout.obj)
 .ARM.attributes
                0x000007a8       0x37 ../blockset/rtw/lib/HANcoder_Olimexino_STM32_F3_RTL.a(cstart.obj)
 .ARM.attributes
                0x000007df       0x37 ../blockset/rtw/lib/HANcoder_Olimexino_STM32_F3_RTL.a(list.obj)
 .ARM.attributes
                0x00000816       0x37 ../blockset/rtw/lib/HANcoder_Olimexino_STM32_F3_RTL.a(system_stm32f30x.obj)
 .ARM.attributes
                0x0000084d       0x37 ../blockset/rtw/lib/HANcoder_Olimexino_STM32_F3_RTL.a(stm32f30x_flash.obj)
 .ARM.attributes
                0x00000884       0x37 ../blockset/rtw/lib/HANcoder_Olimexino_STM32_F3_RTL.a(stm32f30x_tim.obj)
 .ARM.attributes
                0x000008bb       0x37 ../blockset/rtw/lib/HANcoder_Olimexino_STM32_F3_RTL.a(stm32f30x_usart.obj)
 .ARM.attributes
                0x000008f2       0x37 ../blockset/rtw/lib/HANcoder_Olimexino_STM32_F3_RTL.a(usb_init.obj)
 .ARM.attributes
                0x00000929       0x37 ../blockset/rtw/lib/HANcoder_Olimexino_STM32_F3_RTL.a(usb_mem.obj)
 .ARM.attributes
                0x00000960       0x37 ../blockset/rtw/lib/HANcoder_Olimexino_STM32_F3_RTL.a(usb_regs.obj)
 .ARM.attributes
                0x00000997       0x37 ../blockset/rtw/lib/HANcoder_Olimexino_STM32_F3_RTL.a(usb_desc.obj)
 .ARM.attributes
                0x000009ce       0x37 ../blockset/rtw/lib/HANcoder_Olimexino_STM32_F3_RTL.a(usb_istr.obj)
 .ARM.attributes
                0x00000a05       0x37 ../blockset/rtw/lib/HANcoder_Olimexino_STM32_F3_RTL.a(usb_prop.obj)
 .ARM.attributes
                0x00000a3c       0x37 ../blockset/rtw/lib/HANcoder_Olimexino_STM32_F3_RTL.a(usb_core.obj)
 .ARM.attributes
                0x00000a73       0x37 ../blockset/rtw/lib/HANcoder_Olimexino_STM32_F3_RTL.a(usb_int.obj)
 .ARM.attributes
                0x00000aaa       0x37 ../blockset/rtw/lib/HANcoder_Olimexino_STM32_F3_RTL.a(usb_sil.obj)
 .ARM.attributes
                0x00000ae1       0x37 ../blockset/rtw/lib/HANcoder_Olimexino_STM32_F3_RTL.a(usb_endp.obj)
 .ARM.attributes
                0x00000b18       0x32 c:/program files (x86)/gnu arm embedded toolchain/10 2021.10/bin/../lib/gcc/arm-none-eabi/10.3.1/../../../../arm-none-eabi/lib/thumb/v7e-m+fp/softfp\libm.a(lib_a-s_floor.o)
 .ARM.attributes
                0x00000b4a       0x1e c:/program files (x86)/gnu arm embedded toolchain/10 2021.10/bin/../lib/gcc/arm-none-eabi/10.3.1/thumb/v7e-m+fp/softfp\libgcc.a(_arm_muldf3.o)
 .ARM.attributes
                0x00000b68       0x1e c:/program files (x86)/gnu arm embedded toolchain/10 2021.10/bin/../lib/gcc/arm-none-eabi/10.3.1/thumb/v7e-m+fp/softfp\libgcc.a(_arm_addsubdf3.o)
 .ARM.attributes
                0x00000b86       0x1e c:/program files (x86)/gnu arm embedded toolchain/10 2021.10/bin/../lib/gcc/arm-none-eabi/10.3.1/thumb/v7e-m+fp/softfp\libgcc.a(_arm_muldivdf3.o)
 .ARM.attributes
                0x00000ba4       0x1e c:/program files (x86)/gnu arm embedded toolchain/10 2021.10/bin/../lib/gcc/arm-none-eabi/10.3.1/thumb/v7e-m+fp/softfp\libgcc.a(_arm_cmpdf2.o)
 .ARM.attributes
                0x00000bc2       0x1e c:/program files (x86)/gnu arm embedded toolchain/10 2021.10/bin/../lib/gcc/arm-none-eabi/10.3.1/thumb/v7e-m+fp/softfp\libgcc.a(_arm_fixdfsi.o)
 .ARM.attributes
                0x00000be0       0x1e c:/program files (x86)/gnu arm embedded toolchain/10 2021.10/bin/../lib/gcc/arm-none-eabi/10.3.1/thumb/v7e-m+fp/softfp\libgcc.a(_arm_fixunsdfsi.o)
 .ARM.attributes
                0x00000bfe       0x1c c:/program files (x86)/gnu arm embedded toolchain/10 2021.10/bin/../lib/gcc/arm-none-eabi/10.3.1/../../../../arm-none-eabi/lib/thumb/v7e-m+fp/softfp\libg.a(lib_a-memcpy.o)
 .ARM.attributes
                0x00000c1a       0x32 c:/program files (x86)/gnu arm embedded toolchain/10 2021.10/bin/../lib/gcc/arm-none-eabi/10.3.1/../../../../arm-none-eabi/lib/thumb/v7e-m+fp/softfp\libg.a(lib_a-memset.o)
 .ARM.attributes
                0x00000c4c       0x1c c:/program files (x86)/gnu arm embedded toolchain/10 2021.10/bin/../lib/gcc/arm-none-eabi/10.3.1/../../../../arm-none-eabi/lib/thumb/v7e-m+fp/softfp\libg.a(lib_a-strlen.o)

/DISCARD/
 *(.note.GNU-stack)
OUTPUT(../HANcoder_Olimexino_F3_ACC.elf elf32-littlearm)
LOAD linker stubs
